C000  D8        CLD  A:00 X:00 Y:00 P:24 SP:FD
C001  78        SEI  A:00 X:00 Y:00 P:24 SP:FD
C002  AD 02 20  LDA  A:00 X:00 Y:00 P:24 SP:FD
READING OUT OF PPU MMIO RANGE!!!
C005  10 FB     BPL  A:00 X:00 Y:00 P:26 SP:FD
C102  B1 29     LDA  A:00 X:00 Y:00 P:26 SP:FD
C104  C0 D0     CPY  A:00 X:00 Y:00 P:26 SP:FD
C106  48        PHA  A:00 X:00 Y:00 P:24 SP:FD
C107  A5 B1     LDA  A:00 X:00 Y:00 P:24 SP:FC
C109  29 03     AND  A:00 X:00 Y:00 P:26 SP:FC
C10B  F0 51     BEQ  A:00 X:00 Y:00 P:26 SP:FC
C15E  4C 5B C3  JMP  A:00 X:00 Y:00 P:26 SP:FC
C35B  20 1F C4  JSR  A:00 X:00 Y:00 P:26 SP:FC
C41F  AD 29 03  LDA  A:00 X:00 Y:00 P:26 SP:FA
C422  85 1F     STA  A:00 X:00 Y:00 P:26 SP:FA
C424  A5 B9     LDA  A:00 X:00 Y:00 P:26 SP:FA
C426  4C 30 C4  JMP  A:00 X:00 Y:00 P:26 SP:FA
C430  38        SEC  A:00 X:00 Y:00 P:26 SP:FA
C431  E5 1F     SBC  A:00 X:00 Y:00 P:27 SP:FA
C433  10 07     BPL  A:00 X:00 Y:00 P:27 SP:FA
C43C  C9 05     CMP  A:00 X:00 Y:00 P:27 SP:FA
C43E  B0 03     BCS  A:00 X:00 Y:00 P:A4 SP:FA
C440  A0 02     LDY  A:00 X:00 Y:00 P:A4 SP:FA
C442  60        RTS  A:00 X:00 Y:02 P:24 SP:FA
C35E  A5 10     LDA  A:00 X:00 Y:02 P:24 SP:FC
C360  29 03     AND  A:00 X:00 Y:02 P:26 SP:FC
C362  88        DEY  A:00 X:00 Y:02 P:26 SP:FC
C363  F0 11     BEQ  A:00 X:00 Y:01 P:24 SP:FC
C365  C9 02     CMP  A:00 X:00 Y:01 P:24 SP:FC
C367  D0 11     BNE  A:00 X:00 Y:01 P:A4 SP:FC
C37A  4C A8 C3  JMP  A:00 X:00 Y:01 P:A4 SP:FC
C3A8  A0 00     LDY  A:00 X:00 Y:01 P:A4 SP:FC
C3AA  84 C1     STY  A:00 X:00 Y:00 P:26 SP:FC
C3AC  8C 31 03  STY  A:00 X:00 Y:00 P:26 SP:FC
C3AF  C8        INY  A:00 X:00 Y:00 P:26 SP:FC
C3B0  8C FF 05  STY  A:00 X:00 Y:01 P:24 SP:FC
C3B3  A4 BB     LDY  A:00 X:00 Y:01 P:24 SP:FC
C3B5  D0 02     BNE  A:00 X:00 Y:00 P:26 SP:FC
C3B7  85 BB     STA  A:00 X:00 Y:00 P:26 SP:FC
C3B9  AC 2B 03  LDY  A:00 X:00 Y:00 P:26 SP:FC
C3BC  D0 03     BNE  A:00 X:00 Y:00 P:26 SP:FC
C3BE  8D 2B 03  STA  A:00 X:00 Y:00 P:26 SP:FC
C3C1  60        RTS  A:00 X:00 Y:00 P:26 SP:FC
0001  00 00     BRK  A:00 X:00 Y:00 P:26 SP:FE
C000  D8        CLD  A:00 X:00 Y:00 P:26 SP:FB
C001  78        SEI  A:00 X:00 Y:00 P:26 SP:FB
C002  AD 02 20  LDA  A:00 X:00 Y:00 P:26 SP:FB
READING OUT OF PPU MMIO RANGE!!!
C005  10 FB     BPL  A:00 X:00 Y:00 P:26 SP:FB
C102  B1 29     LDA  A:00 X:00 Y:00 P:26 SP:FB
C104  C0 D0     CPY  A:00 X:00 Y:00 P:26 SP:FB
C106  48        PHA  A:00 X:00 Y:00 P:24 SP:FB
C107  A5 B1     LDA  A:00 X:00 Y:00 P:24 SP:FA
C109  29 03     AND  A:00 X:00 Y:00 P:26 SP:FA
C10B  F0 51     BEQ  A:00 X:00 Y:00 P:26 SP:FA
C15E  4C 5B C3  JMP  A:00 X:00 Y:00 P:26 SP:FA
C35B  20 1F C4  JSR  A:00 X:00 Y:00 P:26 SP:FA
C41F  AD 29 03  LDA  A:00 X:00 Y:00 P:26 SP:F8
C422  85 1F     STA  A:00 X:00 Y:00 P:26 SP:F8
C424  A5 B9     LDA  A:00 X:00 Y:00 P:26 SP:F8
C426  4C 30 C4  JMP  A:00 X:00 Y:00 P:26 SP:F8
C430  38        SEC  A:00 X:00 Y:00 P:26 SP:F8
C431  E5 1F     SBC  A:00 X:00 Y:00 P:27 SP:F8
C433  10 07     BPL  A:00 X:00 Y:00 P:27 SP:F8
C43C  C9 05     CMP  A:00 X:00 Y:00 P:27 SP:F8
C43E  B0 03     BCS  A:00 X:00 Y:00 P:A4 SP:F8
C440  A0 02     LDY  A:00 X:00 Y:00 P:A4 SP:F8
C442  60        RTS  A:00 X:00 Y:02 P:24 SP:F8
C35E  A5 10     LDA  A:00 X:00 Y:02 P:24 SP:FA
C360  29 03     AND  A:00 X:00 Y:02 P:26 SP:FA
C362  88        DEY  A:00 X:00 Y:02 P:26 SP:FA
C363  F0 11     BEQ  A:00 X:00 Y:01 P:24 SP:FA
C365  C9 02     CMP  A:00 X:00 Y:01 P:24 SP:FA
C367  D0 11     BNE  A:00 X:00 Y:01 P:A4 SP:FA
C37A  4C A8 C3  JMP  A:00 X:00 Y:01 P:A4 SP:FA
C3A8  A0 00     LDY  A:00 X:00 Y:01 P:A4 SP:FA
C3AA  84 C1     STY  A:00 X:00 Y:00 P:26 SP:FA
C3AC  8C 31 03  STY  A:00 X:00 Y:00 P:26 SP:FA
C3AF  C8        INY  A:00 X:00 Y:00 P:26 SP:FA
C3B0  8C FF 05  STY  A:00 X:00 Y:01 P:24 SP:FA
C3B3  A4 BB     LDY  A:00 X:00 Y:01 P:24 SP:FA
C3B5  D0 02     BNE  A:00 X:00 Y:00 P:26 SP:FA
C3B7  85 BB     STA  A:00 X:00 Y:00 P:26 SP:FA
C3B9  AC 2B 03  LDY  A:00 X:00 Y:00 P:26 SP:FA
C3BC  D0 03     BNE  A:00 X:00 Y:00 P:26 SP:FA
C3BE  8D 2B 03  STA  A:00 X:00 Y:00 P:26 SP:FA
C3C1  60        RTS  A:00 X:00 Y:00 P:26 SP:FA
3601  00 A0     BRK  A:00 X:00 Y:00 P:26 SP:FC
C000  D8        CLD  A:00 X:00 Y:00 P:26 SP:F9
C001  78        SEI  A:00 X:00 Y:00 P:26 SP:F9
C002  AD 02 20  LDA  A:00 X:00 Y:00 P:26 SP:F9
READING OUT OF PPU MMIO RANGE!!!
C005  10 FB     BPL  A:00 X:00 Y:00 P:26 SP:F9
C102  B1 29     LDA  A:00 X:00 Y:00 P:26 SP:F9
C104  C0 D0     CPY  A:00 X:00 Y:00 P:26 SP:F9
C106  48        PHA  A:00 X:00 Y:00 P:24 SP:F9
C107  A5 B1     LDA  A:00 X:00 Y:00 P:24 SP:F8
C109  29 03     AND  A:00 X:00 Y:00 P:26 SP:F8
C10B  F0 51     BEQ  A:00 X:00 Y:00 P:26 SP:F8
C15E  4C 5B C3  JMP  A:00 X:00 Y:00 P:26 SP:F8
C35B  20 1F C4  JSR  A:00 X:00 Y:00 P:26 SP:F8
C41F  AD 29 03  LDA  A:00 X:00 Y:00 P:26 SP:F6
C422  85 1F     STA  A:00 X:00 Y:00 P:26 SP:F6
C424  A5 B9     LDA  A:00 X:00 Y:00 P:26 SP:F6
C426  4C 30 C4  JMP  A:00 X:00 Y:00 P:26 SP:F6
C430  38        SEC  A:00 X:00 Y:00 P:26 SP:F6
C431  E5 1F     SBC  A:00 X:00 Y:00 P:27 SP:F6
C433  10 07     BPL  A:00 X:00 Y:00 P:27 SP:F6
C43C  C9 05     CMP  A:00 X:00 Y:00 P:27 SP:F6
C43E  B0 03     BCS  A:00 X:00 Y:00 P:A4 SP:F6
C440  A0 02     LDY  A:00 X:00 Y:00 P:A4 SP:F6
C442  60        RTS  A:00 X:00 Y:02 P:24 SP:F6
C35E  A5 10     LDA  A:00 X:00 Y:02 P:24 SP:F8
C360  29 03     AND  A:00 X:00 Y:02 P:26 SP:F8
C362  88        DEY  A:00 X:00 Y:02 P:26 SP:F8
C363  F0 11     BEQ  A:00 X:00 Y:01 P:24 SP:F8
C365  C9 02     CMP  A:00 X:00 Y:01 P:24 SP:F8
C367  D0 11     BNE  A:00 X:00 Y:01 P:A4 SP:F8
C37A  4C A8 C3  JMP  A:00 X:00 Y:01 P:A4 SP:F8
C3A8  A0 00     LDY  A:00 X:00 Y:01 P:A4 SP:F8
C3AA  84 C1     STY  A:00 X:00 Y:00 P:26 SP:F8
C3AC  8C 31 03  STY  A:00 X:00 Y:00 P:26 SP:F8
C3AF  C8        INY  A:00 X:00 Y:00 P:26 SP:F8
C3B0  8C FF 05  STY  A:00 X:00 Y:01 P:24 SP:F8
C3B3  A4 BB     LDY  A:00 X:00 Y:01 P:24 SP:F8
C3B5  D0 02     BNE  A:00 X:00 Y:00 P:26 SP:F8
C3B7  85 BB     STA  A:00 X:00 Y:00 P:26 SP:F8
C3B9  AC 2B 03  LDY  A:00 X:00 Y:00 P:26 SP:F8
C3BC  D0 03     BNE  A:00 X:00 Y:00 P:26 SP:F8
C3BE  8D 2B 03  STA  A:00 X:00 Y:00 P:26 SP:F8
C3C1  60        RTS  A:00 X:00 Y:00 P:26 SP:F8
3601  A0 A0     LDY  A:00 X:00 Y:00 P:26 SP:FA
3603  A0 AC     LDY  A:00 X:00 Y:A0 P:A4 SP:FA
3605  AC AC 00  LDY  A:00 X:00 Y:AC P:A4 SP:FA
3608  00 00     BRK  A:00 X:00 Y:00 P:26 SP:FA
C000  D8        CLD  A:00 X:00 Y:00 P:26 SP:F7
C001  78        SEI  A:00 X:00 Y:00 P:26 SP:F7
C002  AD 02 20  LDA  A:00 X:00 Y:00 P:26 SP:F7
READING OUT OF PPU MMIO RANGE!!!
C005  10 FB     BPL  A:00 X:00 Y:00 P:26 SP:F7
C102  B1 29     LDA  A:00 X:00 Y:00 P:26 SP:F7
C104  C0 D0     CPY  A:00 X:00 Y:00 P:26 SP:F7
C106  48        PHA  A:00 X:00 Y:00 P:24 SP:F7
C107  A5 B1     LDA  A:00 X:00 Y:00 P:24 SP:F6
C109  29 03     AND  A:00 X:00 Y:00 P:26 SP:F6
C10B  F0 51     BEQ  A:00 X:00 Y:00 P:26 SP:F6
C15E  4C 5B C3  JMP  A:00 X:00 Y:00 P:26 SP:F6
C35B  20 1F C4  JSR  A:00 X:00 Y:00 P:26 SP:F6
C41F  AD 29 03  LDA  A:00 X:00 Y:00 P:26 SP:F4
C422  85 1F     STA  A:00 X:00 Y:00 P:26 SP:F4
C424  A5 B9     LDA  A:00 X:00 Y:00 P:26 SP:F4
C426  4C 30 C4  JMP  A:00 X:00 Y:00 P:26 SP:F4
C430  38        SEC  A:00 X:00 Y:00 P:26 SP:F4
C431  E5 1F     SBC  A:00 X:00 Y:00 P:27 SP:F4
C433  10 07     BPL  A:00 X:00 Y:00 P:27 SP:F4
C43C  C9 05     CMP  A:00 X:00 Y:00 P:27 SP:F4
C43E  B0 03     BCS  A:00 X:00 Y:00 P:A4 SP:F4
C440  A0 02     LDY  A:00 X:00 Y:00 P:A4 SP:F4
C442  60        RTS  A:00 X:00 Y:02 P:24 SP:F4
C35E  A5 10     LDA  A:00 X:00 Y:02 P:24 SP:F6
C360  29 03     AND  A:00 X:00 Y:02 P:26 SP:F6
C362  88        DEY  A:00 X:00 Y:02 P:26 SP:F6
C363  F0 11     BEQ  A:00 X:00 Y:01 P:24 SP:F6
C365  C9 02     CMP  A:00 X:00 Y:01 P:24 SP:F6
C367  D0 11     BNE  A:00 X:00 Y:01 P:A4 SP:F6
C37A  4C A8 C3  JMP  A:00 X:00 Y:01 P:A4 SP:F6
C3A8  A0 00     LDY  A:00 X:00 Y:01 P:A4 SP:F6
C3AA  84 C1     STY  A:00 X:00 Y:00 P:26 SP:F6
C3AC  8C 31 03  STY  A:00 X:00 Y:00 P:26 SP:F6
C3AF  C8        INY  A:00 X:00 Y:00 P:26 SP:F6
C3B0  8C FF 05  STY  A:00 X:00 Y:01 P:24 SP:F6
C3B3  A4 BB     LDY  A:00 X:00 Y:01 P:24 SP:F6
C3B5  D0 02     BNE  A:00 X:00 Y:00 P:26 SP:F6
C3B7  85 BB     STA  A:00 X:00 Y:00 P:26 SP:F6
C3B9  AC 2B 03  LDY  A:00 X:00 Y:00 P:26 SP:F6
C3BC  D0 03     BNE  A:00 X:00 Y:00 P:26 SP:F6
C3BE  8D 2B 03  STA  A:00 X:00 Y:00 P:26 SP:F6
C3C1  60        RTS  A:00 X:00 Y:00 P:26 SP:F6
3601  00 A0     BRK  A:00 X:00 Y:00 P:26 SP:F8
C000  D8        CLD  A:00 X:00 Y:00 P:26 SP:F5
C001  78        SEI  A:00 X:00 Y:00 P:26 SP:F5
C002  AD 02 20  LDA  A:00 X:00 Y:00 P:26 SP:F5
READING OUT OF PPU MMIO RANGE!!!
C005  10 FB     BPL  A:00 X:00 Y:00 P:26 SP:F5
C102  B1 29     LDA  A:00 X:00 Y:00 P:26 SP:F5
C104  C0 D0     CPY  A:00 X:00 Y:00 P:26 SP:F5
C106  48        PHA  A:00 X:00 Y:00 P:24 SP:F5
C107  A5 B1     LDA  A:00 X:00 Y:00 P:24 SP:F4
C109  29 03     AND  A:00 X:00 Y:00 P:26 SP:F4
C10B  F0 51     BEQ  A:00 X:00 Y:00 P:26 SP:F4
C15E  4C 5B C3  JMP  A:00 X:00 Y:00 P:26 SP:F4
C35B  20 1F C4  JSR  A:00 X:00 Y:00 P:26 SP:F4
C41F  AD 29 03  LDA  A:00 X:00 Y:00 P:26 SP:F2
C422  85 1F     STA  A:00 X:00 Y:00 P:26 SP:F2
C424  A5 B9     LDA  A:00 X:00 Y:00 P:26 SP:F2
C426  4C 30 C4  JMP  A:00 X:00 Y:00 P:26 SP:F2
C430  38        SEC  A:00 X:00 Y:00 P:26 SP:F2
C431  E5 1F     SBC  A:00 X:00 Y:00 P:27 SP:F2
C433  10 07     BPL  A:00 X:00 Y:00 P:27 SP:F2
C43C  C9 05     CMP  A:00 X:00 Y:00 P:27 SP:F2
C43E  B0 03     BCS  A:00 X:00 Y:00 P:A4 SP:F2
C440  A0 02     LDY  A:00 X:00 Y:00 P:A4 SP:F2
C442  60        RTS  A:00 X:00 Y:02 P:24 SP:F2
C35E  A5 10     LDA  A:00 X:00 Y:02 P:24 SP:F4
C360  29 03     AND  A:00 X:00 Y:02 P:26 SP:F4
C362  88        DEY  A:00 X:00 Y:02 P:26 SP:F4
C363  F0 11     BEQ  A:00 X:00 Y:01 P:24 SP:F4
C365  C9 02     CMP  A:00 X:00 Y:01 P:24 SP:F4
C367  D0 11     BNE  A:00 X:00 Y:01 P:A4 SP:F4
C37A  4C A8 C3  JMP  A:00 X:00 Y:01 P:A4 SP:F4
C3A8  A0 00     LDY  A:00 X:00 Y:01 P:A4 SP:F4
C3AA  84 C1     STY  A:00 X:00 Y:00 P:26 SP:F4
C3AC  8C 31 03  STY  A:00 X:00 Y:00 P:26 SP:F4
C3AF  C8        INY  A:00 X:00 Y:00 P:26 SP:F4
C3B0  8C FF 05  STY  A:00 X:00 Y:01 P:24 SP:F4
C3B3  A4 BB     LDY  A:00 X:00 Y:01 P:24 SP:F4
C3B5  D0 02     BNE  A:00 X:00 Y:00 P:26 SP:F4
C3B7  85 BB     STA  A:00 X:00 Y:00 P:26 SP:F4
C3B9  AC 2B 03  LDY  A:00 X:00 Y:00 P:26 SP:F4
C3BC  D0 03     BNE  A:00 X:00 Y:00 P:26 SP:F4
C3BE  8D 2B 03  STA  A:00 X:00 Y:00 P:26 SP:F4
C3C1  60        RTS  A:00 X:00 Y:00 P:26 SP:F4
3601  A0 A0     LDY  A:00 X:00 Y:00 P:26 SP:F6
3603  A0 AC     LDY  A:00 X:00 Y:A0 P:A4 SP:F6
3605  AC AC 00  LDY  A:00 X:00 Y:AC P:A4 SP:F6
3608  00 00     BRK  A:00 X:00 Y:00 P:26 SP:F6
C000  D8        CLD  A:00 X:00 Y:00 P:26 SP:F3
C001  78        SEI  A:00 X:00 Y:00 P:26 SP:F3
C002  AD 02 20  LDA  A:00 X:00 Y:00 P:26 SP:F3
READING OUT OF PPU MMIO RANGE!!!
C005  10 FB     BPL  A:00 X:00 Y:00 P:26 SP:F3
C102  B1 29     LDA  A:00 X:00 Y:00 P:26 SP:F3
C104  C0 D0     CPY  A:00 X:00 Y:00 P:26 SP:F3
C106  48        PHA  A:00 X:00 Y:00 P:24 SP:F3
C107  A5 B1     LDA  A:00 X:00 Y:00 P:24 SP:F2
C109  29 03     AND  A:00 X:00 Y:00 P:26 SP:F2
C10B  F0 51     BEQ  A:00 X:00 Y:00 P:26 SP:F2
C15E  4C 5B C3  JMP  A:00 X:00 Y:00 P:26 SP:F2
C35B  20 1F C4  JSR  A:00 X:00 Y:00 P:26 SP:F2
C41F  AD 29 03  LDA  A:00 X:00 Y:00 P:26 SP:F0
C422  85 1F     STA  A:00 X:00 Y:00 P:26 SP:F0
C424  A5 B9     LDA  A:00 X:00 Y:00 P:26 SP:F0
C426  4C 30 C4  JMP  A:00 X:00 Y:00 P:26 SP:F0
C430  38        SEC  A:00 X:00 Y:00 P:26 SP:F0
C431  E5 1F     SBC  A:00 X:00 Y:00 P:27 SP:F0
C433  10 07     BPL  A:00 X:00 Y:00 P:27 SP:F0
C43C  C9 05     CMP  A:00 X:00 Y:00 P:27 SP:F0
C43E  B0 03     BCS  A:00 X:00 Y:00 P:A4 SP:F0
C440  A0 02     LDY  A:00 X:00 Y:00 P:A4 SP:F0
C442  60        RTS  A:00 X:00 Y:02 P:24 SP:F0
C35E  A5 10     LDA  A:00 X:00 Y:02 P:24 SP:F2
C360  29 03     AND  A:00 X:00 Y:02 P:26 SP:F2
C362  88        DEY  A:00 X:00 Y:02 P:26 SP:F2
C363  F0 11     BEQ  A:00 X:00 Y:01 P:24 SP:F2
C365  C9 02     CMP  A:00 X:00 Y:01 P:24 SP:F2
C367  D0 11     BNE  A:00 X:00 Y:01 P:A4 SP:F2
C37A  4C A8 C3  JMP  A:00 X:00 Y:01 P:A4 SP:F2
C3A8  A0 00     LDY  A:00 X:00 Y:01 P:A4 SP:F2
C3AA  84 C1     STY  A:00 X:00 Y:00 P:26 SP:F2
C3AC  8C 31 03  STY  A:00 X:00 Y:00 P:26 SP:F2
C3AF  C8        INY  A:00 X:00 Y:00 P:26 SP:F2
C3B0  8C FF 05  STY  A:00 X:00 Y:01 P:24 SP:F2
C3B3  A4 BB     LDY  A:00 X:00 Y:01 P:24 SP:F2
C3B5  D0 02     BNE  A:00 X:00 Y:00 P:26 SP:F2
C3B7  85 BB     STA  A:00 X:00 Y:00 P:26 SP:F2
C3B9  AC 2B 03  LDY  A:00 X:00 Y:00 P:26 SP:F2
C3BC  D0 03     BNE  A:00 X:00 Y:00 P:26 SP:F2
C3BE  8D 2B 03  STA  A:00 X:00 Y:00 P:26 SP:F2
C3C1  60        RTS  A:00 X:00 Y:00 P:26 SP:F2
3601  00 A0     BRK  A:00 X:00 Y:00 P:26 SP:F4
C000  D8        CLD  A:00 X:00 Y:00 P:26 SP:F1
C001  78        SEI  A:00 X:00 Y:00 P:26 SP:F1
C002  AD 02 20  LDA  A:00 X:00 Y:00 P:26 SP:F1
READING OUT OF PPU MMIO RANGE!!!
C005  10 FB     BPL  A:00 X:00 Y:00 P:26 SP:F1
C102  B1 29     LDA  A:00 X:00 Y:00 P:26 SP:F1
C104  C0 D0     CPY  A:00 X:00 Y:00 P:26 SP:F1
C106  48        PHA  A:00 X:00 Y:00 P:24 SP:F1
C107  A5 B1     LDA  A:00 X:00 Y:00 P:24 SP:F0
C109  29 03     AND  A:00 X:00 Y:00 P:26 SP:F0
C10B  F0 51     BEQ  A:00 X:00 Y:00 P:26 SP:F0
C15E  4C 5B C3  JMP  A:00 X:00 Y:00 P:26 SP:F0
C35B  20 1F C4  JSR  A:00 X:00 Y:00 P:26 SP:F0
C41F  AD 29 03  LDA  A:00 X:00 Y:00 P:26 SP:EE
C422  85 1F     STA  A:00 X:00 Y:00 P:26 SP:EE
C424  A5 B9     LDA  A:00 X:00 Y:00 P:26 SP:EE
C426  4C 30 C4  JMP  A:00 X:00 Y:00 P:26 SP:EE
C430  38        SEC  A:00 X:00 Y:00 P:26 SP:EE
C431  E5 1F     SBC  A:00 X:00 Y:00 P:27 SP:EE
C433  10 07     BPL  A:00 X:00 Y:00 P:27 SP:EE
C43C  C9 05     CMP  A:00 X:00 Y:00 P:27 SP:EE
C43E  B0 03     BCS  A:00 X:00 Y:00 P:A4 SP:EE
C440  A0 02     LDY  A:00 X:00 Y:00 P:A4 SP:EE
C442  60        RTS  A:00 X:00 Y:02 P:24 SP:EE
C35E  A5 10     LDA  A:00 X:00 Y:02 P:24 SP:F0
C360  29 03     AND  A:00 X:00 Y:02 P:26 SP:F0
C362  88        DEY  A:00 X:00 Y:02 P:26 SP:F0
C363  F0 11     BEQ  A:00 X:00 Y:01 P:24 SP:F0
C365  C9 02     CMP  A:00 X:00 Y:01 P:24 SP:F0
C367  D0 11     BNE  A:00 X:00 Y:01 P:A4 SP:F0
C37A  4C A8 C3  JMP  A:00 X:00 Y:01 P:A4 SP:F0
C3A8  A0 00     LDY  A:00 X:00 Y:01 P:A4 SP:F0
C3AA  84 C1     STY  A:00 X:00 Y:00 P:26 SP:F0
C3AC  8C 31 03  STY  A:00 X:00 Y:00 P:26 SP:F0
C3AF  C8        INY  A:00 X:00 Y:00 P:26 SP:F0
C3B0  8C FF 05  STY  A:00 X:00 Y:01 P:24 SP:F0
C3B3  A4 BB     LDY  A:00 X:00 Y:01 P:24 SP:F0
C3B5  D0 02     BNE  A:00 X:00 Y:00 P:26 SP:F0
C3B7  85 BB     STA  A:00 X:00 Y:00 P:26 SP:F0
C3B9  AC 2B 03  LDY  A:00 X:00 Y:00 P:26 SP:F0
C3BC  D0 03     BNE  A:00 X:00 Y:00 P:26 SP:F0
C3BE  8D 2B 03  STA  A:00 X:00 Y:00 P:26 SP:F0
C3C1  60        RTS  A:00 X:00 Y:00 P:26 SP:F0
3601  A0 A0     LDY  A:00 X:00 Y:00 P:26 SP:F2
3603  A0 AC     LDY  A:00 X:00 Y:A0 P:A4 SP:F2
3605  AC AC 00  LDY  A:00 X:00 Y:AC P:A4 SP:F2
3608  00 00     BRK  A:00 X:00 Y:00 P:26 SP:F2
C000  D8        CLD  A:00 X:00 Y:00 P:26 SP:EF
C001  78        SEI  A:00 X:00 Y:00 P:26 SP:EF
C002  AD 02 20  LDA  A:00 X:00 Y:00 P:26 SP:EF
READING OUT OF PPU MMIO RANGE!!!
C005  10 FB     BPL  A:00 X:00 Y:00 P:26 SP:EF
C102  B1 29     LDA  A:00 X:00 Y:00 P:26 SP:EF
C104  C0 D0     CPY  A:00 X:00 Y:00 P:26 SP:EF
C106  48        PHA  A:00 X:00 Y:00 P:24 SP:EF
C107  A5 B1     LDA  A:00 X:00 Y:00 P:24 SP:EE
C109  29 03     AND  A:00 X:00 Y:00 P:26 SP:EE
C10B  F0 51     BEQ  A:00 X:00 Y:00 P:26 SP:EE
C15E  4C 5B C3  JMP  A:00 X:00 Y:00 P:26 SP:EE
C35B  20 1F C4  JSR  A:00 X:00 Y:00 P:26 SP:EE
C41F  AD 29 03  LDA  A:00 X:00 Y:00 P:26 SP:EC
C422  85 1F     STA  A:00 X:00 Y:00 P:26 SP:EC
C424  A5 B9     LDA  A:00 X:00 Y:00 P:26 SP:EC
C426  4C 30 C4  JMP  A:00 X:00 Y:00 P:26 SP:EC
C430  38        SEC  A:00 X:00 Y:00 P:26 SP:EC
C431  E5 1F     SBC  A:00 X:00 Y:00 P:27 SP:EC
C433  10 07     BPL  A:00 X:00 Y:00 P:27 SP:EC
C43C  C9 05     CMP  A:00 X:00 Y:00 P:27 SP:EC
C43E  B0 03     BCS  A:00 X:00 Y:00 P:A4 SP:EC
C440  A0 02     LDY  A:00 X:00 Y:00 P:A4 SP:EC
C442  60        RTS  A:00 X:00 Y:02 P:24 SP:EC
C35E  A5 10     LDA  A:00 X:00 Y:02 P:24 SP:EE
C360  29 03     AND  A:00 X:00 Y:02 P:26 SP:EE
C362  88        DEY  A:00 X:00 Y:02 P:26 SP:EE
C363  F0 11     BEQ  A:00 X:00 Y:01 P:24 SP:EE
C365  C9 02     CMP  A:00 X:00 Y:01 P:24 SP:EE
C367  D0 11     BNE  A:00 X:00 Y:01 P:A4 SP:EE
C37A  4C A8 C3  JMP  A:00 X:00 Y:01 P:A4 SP:EE
C3A8  A0 00     LDY  A:00 X:00 Y:01 P:A4 SP:EE
C3AA  84 C1     STY  A:00 X:00 Y:00 P:26 SP:EE
C3AC  8C 31 03  STY  A:00 X:00 Y:00 P:26 SP:EE
C3AF  C8        INY  A:00 X:00 Y:00 P:26 SP:EE
C3B0  8C FF 05  STY  A:00 X:00 Y:01 P:24 SP:EE
C3B3  A4 BB     LDY  A:00 X:00 Y:01 P:24 SP:EE
C3B5  D0 02     BNE  A:00 X:00 Y:00 P:26 SP:EE
C3B7  85 BB     STA  A:00 X:00 Y:00 P:26 SP:EE
C3B9  AC 2B 03  LDY  A:00 X:00 Y:00 P:26 SP:EE
C3BC  D0 03     BNE  A:00 X:00 Y:00 P:26 SP:EE
C3BE  8D 2B 03  STA  A:00 X:00 Y:00 P:26 SP:EE
C3C1  60        RTS  A:00 X:00 Y:00 P:26 SP:EE
3601  00 A0     BRK  A:00 X:00 Y:00 P:26 SP:F0
C000  D8        CLD  A:00 X:00 Y:00 P:26 SP:ED
C001  78        SEI  A:00 X:00 Y:00 P:26 SP:ED
C002  AD 02 20  LDA  A:00 X:00 Y:00 P:26 SP:ED
READING OUT OF PPU MMIO RANGE!!!
C005  10 FB     BPL  A:00 X:00 Y:00 P:26 SP:ED
C102  B1 29     LDA  A:00 X:00 Y:00 P:26 SP:ED
C104  C0 D0     CPY  A:00 X:00 Y:00 P:26 SP:ED
C106  48        PHA  A:00 X:00 Y:00 P:24 SP:ED
C107  A5 B1     LDA  A:00 X:00 Y:00 P:24 SP:EC
C109  29 03     AND  A:00 X:00 Y:00 P:26 SP:EC
C10B  F0 51     BEQ  A:00 X:00 Y:00 P:26 SP:EC
C15E  4C 5B C3  JMP  A:00 X:00 Y:00 P:26 SP:EC
C35B  20 1F C4  JSR  A:00 X:00 Y:00 P:26 SP:EC
C41F  AD 29 03  LDA  A:00 X:00 Y:00 P:26 SP:EA
C422  85 1F     STA  A:00 X:00 Y:00 P:26 SP:EA
C424  A5 B9     LDA  A:00 X:00 Y:00 P:26 SP:EA
C426  4C 30 C4  JMP  A:00 X:00 Y:00 P:26 SP:EA
C430  38        SEC  A:00 X:00 Y:00 P:26 SP:EA
C431  E5 1F     SBC  A:00 X:00 Y:00 P:27 SP:EA
C433  10 07     BPL  A:00 X:00 Y:00 P:27 SP:EA
C43C  C9 05     CMP  A:00 X:00 Y:00 P:27 SP:EA
C43E  B0 03     BCS  A:00 X:00 Y:00 P:A4 SP:EA
C440  A0 02     LDY  A:00 X:00 Y:00 P:A4 SP:EA
C442  60        RTS  A:00 X:00 Y:02 P:24 SP:EA
C35E  A5 10     LDA  A:00 X:00 Y:02 P:24 SP:EC
C360  29 03     AND  A:00 X:00 Y:02 P:26 SP:EC
C362  88        DEY  A:00 X:00 Y:02 P:26 SP:EC
C363  F0 11     BEQ  A:00 X:00 Y:01 P:24 SP:EC
C365  C9 02     CMP  A:00 X:00 Y:01 P:24 SP:EC
C367  D0 11     BNE  A:00 X:00 Y:01 P:A4 SP:EC
C37A  4C A8 C3  JMP  A:00 X:00 Y:01 P:A4 SP:EC
C3A8  A0 00     LDY  A:00 X:00 Y:01 P:A4 SP:EC
C3AA  84 C1     STY  A:00 X:00 Y:00 P:26 SP:EC
C3AC  8C 31 03  STY  A:00 X:00 Y:00 P:26 SP:EC
C3AF  C8        INY  A:00 X:00 Y:00 P:26 SP:EC
C3B0  8C FF 05  STY  A:00 X:00 Y:01 P:24 SP:EC
C3B3  A4 BB     LDY  A:00 X:00 Y:01 P:24 SP:EC
C3B5  D0 02     BNE  A:00 X:00 Y:00 P:26 SP:EC
C3B7  85 BB     STA  A:00 X:00 Y:00 P:26 SP:EC
C3B9  AC 2B 03  LDY  A:00 X:00 Y:00 P:26 SP:EC
C3BC  D0 03     BNE  A:00 X:00 Y:00 P:26 SP:EC
C3BE  8D 2B 03  STA  A:00 X:00 Y:00 P:26 SP:EC
C3C1  60        RTS  A:00 X:00 Y:00 P:26 SP:EC
3601  A0 A0     LDY  A:00 X:00 Y:00 P:26 SP:EE
3603  A0 AC     LDY  A:00 X:00 Y:A0 P:A4 SP:EE
3605  AC AC 00  LDY  A:00 X:00 Y:AC P:A4 SP:EE
3608  00 00     BRK  A:00 X:00 Y:00 P:26 SP:EE
C000  D8        CLD  A:00 X:00 Y:00 P:26 SP:EB
C001  78        SEI  A:00 X:00 Y:00 P:26 SP:EB
C002  AD 02 20  LDA  A:00 X:00 Y:00 P:26 SP:EB
READING OUT OF PPU MMIO RANGE!!!
C005  10 FB     BPL  A:00 X:00 Y:00 P:26 SP:EB
C102  B1 29     LDA  A:00 X:00 Y:00 P:26 SP:EB
C104  C0 D0     CPY  A:00 X:00 Y:00 P:26 SP:EB
C106  48        PHA  A:00 X:00 Y:00 P:24 SP:EB
C107  A5 B1     LDA  A:00 X:00 Y:00 P:24 SP:EA
C109  29 03     AND  A:00 X:00 Y:00 P:26 SP:EA
C10B  F0 51     BEQ  A:00 X:00 Y:00 P:26 SP:EA
C15E  4C 5B C3  JMP  A:00 X:00 Y:00 P:26 SP:EA
C35B  20 1F C4  JSR  A:00 X:00 Y:00 P:26 SP:EA
C41F  AD 29 03  LDA  A:00 X:00 Y:00 P:26 SP:E8
C422  85 1F     STA  A:00 X:00 Y:00 P:26 SP:E8
C424  A5 B9     LDA  A:00 X:00 Y:00 P:26 SP:E8
C426  4C 30 C4  JMP  A:00 X:00 Y:00 P:26 SP:E8
C430  38        SEC  A:00 X:00 Y:00 P:26 SP:E8
C431  E5 1F     SBC  A:00 X:00 Y:00 P:27 SP:E8
C433  10 07     BPL  A:00 X:00 Y:00 P:27 SP:E8
C43C  C9 05     CMP  A:00 X:00 Y:00 P:27 SP:E8
C43E  B0 03     BCS  A:00 X:00 Y:00 P:A4 SP:E8
C440  A0 02     LDY  A:00 X:00 Y:00 P:A4 SP:E8
C442  60        RTS  A:00 X:00 Y:02 P:24 SP:E8
C35E  A5 10     LDA  A:00 X:00 Y:02 P:24 SP:EA
C360  29 03     AND  A:00 X:00 Y:02 P:26 SP:EA
C362  88        DEY  A:00 X:00 Y:02 P:26 SP:EA
C363  F0 11     BEQ  A:00 X:00 Y:01 P:24 SP:EA
C365  C9 02     CMP  A:00 X:00 Y:01 P:24 SP:EA
C367  D0 11     BNE  A:00 X:00 Y:01 P:A4 SP:EA
C37A  4C A8 C3  JMP  A:00 X:00 Y:01 P:A4 SP:EA
C3A8  A0 00     LDY  A:00 X:00 Y:01 P:A4 SP:EA
C3AA  84 C1     STY  A:00 X:00 Y:00 P:26 SP:EA
C3AC  8C 31 03  STY  A:00 X:00 Y:00 P:26 SP:EA
C3AF  C8        INY  A:00 X:00 Y:00 P:26 SP:EA
C3B0  8C FF 05  STY  A:00 X:00 Y:01 P:24 SP:EA
C3B3  A4 BB     LDY  A:00 X:00 Y:01 P:24 SP:EA
C3B5  D0 02     BNE  A:00 X:00 Y:00 P:26 SP:EA
C3B7  85 BB     STA  A:00 X:00 Y:00 P:26 SP:EA
C3B9  AC 2B 03  LDY  A:00 X:00 Y:00 P:26 SP:EA
C3BC  D0 03     BNE  A:00 X:00 Y:00 P:26 SP:EA
C3BE  8D 2B 03  STA  A:00 X:00 Y:00 P:26 SP:EA
C3C1  60        RTS  A:00 X:00 Y:00 P:26 SP:EA
3601  00 A0     BRK  A:00 X:00 Y:00 P:26 SP:EC
C000  D8        CLD  A:00 X:00 Y:00 P:26 SP:E9
C001  78        SEI  A:00 X:00 Y:00 P:26 SP:E9
C002  AD 02 20  LDA  A:00 X:00 Y:00 P:26 SP:E9
READING OUT OF PPU MMIO RANGE!!!
C005  10 FB     BPL  A:00 X:00 Y:00 P:26 SP:E9
C102  B1 29     LDA  A:00 X:00 Y:00 P:26 SP:E9
C104  C0 D0     CPY  A:00 X:00 Y:00 P:26 SP:E9
C106  48        PHA  A:00 X:00 Y:00 P:24 SP:E9
C107  A5 B1     LDA  A:00 X:00 Y:00 P:24 SP:E8
C109  29 03     AND  A:00 X:00 Y:00 P:26 SP:E8
C10B  F0 51     BEQ  A:00 X:00 Y:00 P:26 SP:E8
C15E  4C 5B C3  JMP  A:00 X:00 Y:00 P:26 SP:E8
C35B  20 1F C4  JSR  A:00 X:00 Y:00 P:26 SP:E8
C41F  AD 29 03  LDA  A:00 X:00 Y:00 P:26 SP:E6
C422  85 1F     STA  A:00 X:00 Y:00 P:26 SP:E6
C424  A5 B9     LDA  A:00 X:00 Y:00 P:26 SP:E6
C426  4C 30 C4  JMP  A:00 X:00 Y:00 P:26 SP:E6
C430  38        SEC  A:00 X:00 Y:00 P:26 SP:E6
C431  E5 1F     SBC  A:00 X:00 Y:00 P:27 SP:E6
C433  10 07     BPL  A:00 X:00 Y:00 P:27 SP:E6
C43C  C9 05     CMP  A:00 X:00 Y:00 P:27 SP:E6
C43E  B0 03     BCS  A:00 X:00 Y:00 P:A4 SP:E6
C440  A0 02     LDY  A:00 X:00 Y:00 P:A4 SP:E6
C442  60        RTS  A:00 X:00 Y:02 P:24 SP:E6
C35E  A5 10     LDA  A:00 X:00 Y:02 P:24 SP:E8
C360  29 03     AND  A:00 X:00 Y:02 P:26 SP:E8
C362  88        DEY  A:00 X:00 Y:02 P:26 SP:E8
C363  F0 11     BEQ  A:00 X:00 Y:01 P:24 SP:E8
C365  C9 02     CMP  A:00 X:00 Y:01 P:24 SP:E8
C367  D0 11     BNE  A:00 X:00 Y:01 P:A4 SP:E8
C37A  4C A8 C3  JMP  A:00 X:00 Y:01 P:A4 SP:E8
C3A8  A0 00     LDY  A:00 X:00 Y:01 P:A4 SP:E8
C3AA  84 C1     STY  A:00 X:00 Y:00 P:26 SP:E8
C3AC  8C 31 03  STY  A:00 X:00 Y:00 P:26 SP:E8
C3AF  C8        INY  A:00 X:00 Y:00 P:26 SP:E8
C3B0  8C FF 05  STY  A:00 X:00 Y:01 P:24 SP:E8
C3B3  A4 BB     LDY  A:00 X:00 Y:01 P:24 SP:E8
C3B5  D0 02     BNE  A:00 X:00 Y:00 P:26 SP:E8
C3B7  85 BB     STA  A:00 X:00 Y:00 P:26 SP:E8
C3B9  AC 2B 03  LDY  A:00 X:00 Y:00 P:26 SP:E8
C3BC  D0 03     BNE  A:00 X:00 Y:00 P:26 SP:E8
C3BE  8D 2B 03  STA  A:00 X:00 Y:00 P:26 SP:E8
C3C1  60        RTS  A:00 X:00 Y:00 P:26 SP:E8
3601  A0 A0     LDY  A:00 X:00 Y:00 P:26 SP:EA
3603  A0 AC     LDY  A:00 X:00 Y:A0 P:A4 SP:EA
3605  AC AC 00  LDY  A:00 X:00 Y:AC P:A4 SP:EA
3608  00 00     BRK  A:00 X:00 Y:00 P:26 SP:EA
C000  D8        CLD  A:00 X:00 Y:00 P:26 SP:E7
C001  78        SEI  A:00 X:00 Y:00 P:26 SP:E7
C002  AD 02 20  LDA  A:00 X:00 Y:00 P:26 SP:E7
READING OUT OF PPU MMIO RANGE!!!
C005  10 FB     BPL  A:00 X:00 Y:00 P:26 SP:E7
C102  B1 29     LDA  A:00 X:00 Y:00 P:26 SP:E7
C104  C0 D0     CPY  A:00 X:00 Y:00 P:26 SP:E7
C106  48        PHA  A:00 X:00 Y:00 P:24 SP:E7
C107  A5 B1     LDA  A:00 X:00 Y:00 P:24 SP:E6
C109  29 03     AND  A:00 X:00 Y:00 P:26 SP:E6
C10B  F0 51     BEQ  A:00 X:00 Y:00 P:26 SP:E6
C15E  4C 5B C3  JMP  A:00 X:00 Y:00 P:26 SP:E6
C35B  20 1F C4  JSR  A:00 X:00 Y:00 P:26 SP:E6
C41F  AD 29 03  LDA  A:00 X:00 Y:00 P:26 SP:E4
C422  85 1F     STA  A:00 X:00 Y:00 P:26 SP:E4
C424  A5 B9     LDA  A:00 X:00 Y:00 P:26 SP:E4
C426  4C 30 C4  JMP  A:00 X:00 Y:00 P:26 SP:E4
C430  38        SEC  A:00 X:00 Y:00 P:26 SP:E4
C431  E5 1F     SBC  A:00 X:00 Y:00 P:27 SP:E4
C433  10 07     BPL  A:00 X:00 Y:00 P:27 SP:E4
C43C  C9 05     CMP  A:00 X:00 Y:00 P:27 SP:E4
C43E  B0 03     BCS  A:00 X:00 Y:00 P:A4 SP:E4
C440  A0 02     LDY  A:00 X:00 Y:00 P:A4 SP:E4
C442  60        RTS  A:00 X:00 Y:02 P:24 SP:E4
C35E  A5 10     LDA  A:00 X:00 Y:02 P:24 SP:E6
C360  29 03     AND  A:00 X:00 Y:02 P:26 SP:E6
C362  88        DEY  A:00 X:00 Y:02 P:26 SP:E6
C363  F0 11     BEQ  A:00 X:00 Y:01 P:24 SP:E6
C365  C9 02     CMP  A:00 X:00 Y:01 P:24 SP:E6
C367  D0 11     BNE  A:00 X:00 Y:01 P:A4 SP:E6
C37A  4C A8 C3  JMP  A:00 X:00 Y:01 P:A4 SP:E6
C3A8  A0 00     LDY  A:00 X:00 Y:01 P:A4 SP:E6
C3AA  84 C1     STY  A:00 X:00 Y:00 P:26 SP:E6
C3AC  8C 31 03  STY  A:00 X:00 Y:00 P:26 SP:E6
C3AF  C8        INY  A:00 X:00 Y:00 P:26 SP:E6
C3B0  8C FF 05  STY  A:00 X:00 Y:01 P:24 SP:E6
C3B3  A4 BB     LDY  A:00 X:00 Y:01 P:24 SP:E6
C3B5  D0 02     BNE  A:00 X:00 Y:00 P:26 SP:E6
C3B7  85 BB     STA  A:00 X:00 Y:00 P:26 SP:E6
C3B9  AC 2B 03  LDY  A:00 X:00 Y:00 P:26 SP:E6
C3BC  D0 03     BNE  A:00 X:00 Y:00 P:26 SP:E6
C3BE  8D 2B 03  STA  A:00 X:00 Y:00 P:26 SP:E6
C3C1  60        RTS  A:00 X:00 Y:00 P:26 SP:E6
3601  00 A0     BRK  A:00 X:00 Y:00 P:26 SP:E8
C000  D8        CLD  A:00 X:00 Y:00 P:26 SP:E5
C001  78        SEI  A:00 X:00 Y:00 P:26 SP:E5
C002  AD 02 20  LDA  A:00 X:00 Y:00 P:26 SP:E5
READING OUT OF PPU MMIO RANGE!!!
C005  10 FB     BPL  A:00 X:00 Y:00 P:26 SP:E5
C102  B1 29     LDA  A:00 X:00 Y:00 P:26 SP:E5
C104  C0 D0     CPY  A:00 X:00 Y:00 P:26 SP:E5
C106  48        PHA  A:00 X:00 Y:00 P:24 SP:E5
C107  A5 B1     LDA  A:00 X:00 Y:00 P:24 SP:E4
C109  29 03     AND  A:00 X:00 Y:00 P:26 SP:E4
C10B  F0 51     BEQ  A:00 X:00 Y:00 P:26 SP:E4
C15E  4C 5B C3  JMP  A:00 X:00 Y:00 P:26 SP:E4
C35B  20 1F C4  JSR  A:00 X:00 Y:00 P:26 SP:E4
C41F  AD 29 03  LDA  A:00 X:00 Y:00 P:26 SP:E2
C422  85 1F     STA  A:00 X:00 Y:00 P:26 SP:E2
C424  A5 B9     LDA  A:00 X:00 Y:00 P:26 SP:E2
C426  4C 30 C4  JMP  A:00 X:00 Y:00 P:26 SP:E2
C430  38        SEC  A:00 X:00 Y:00 P:26 SP:E2
C431  E5 1F     SBC  A:00 X:00 Y:00 P:27 SP:E2
C433  10 07     BPL  A:00 X:00 Y:00 P:27 SP:E2
C43C  C9 05     CMP  A:00 X:00 Y:00 P:27 SP:E2
C43E  B0 03     BCS  A:00 X:00 Y:00 P:A4 SP:E2
C440  A0 02     LDY  A:00 X:00 Y:00 P:A4 SP:E2
C442  60        RTS  A:00 X:00 Y:02 P:24 SP:E2
C35E  A5 10     LDA  A:00 X:00 Y:02 P:24 SP:E4
C360  29 03     AND  A:00 X:00 Y:02 P:26 SP:E4
C362  88        DEY  A:00 X:00 Y:02 P:26 SP:E4
C363  F0 11     BEQ  A:00 X:00 Y:01 P:24 SP:E4
C365  C9 02     CMP  A:00 X:00 Y:01 P:24 SP:E4
C367  D0 11     BNE  A:00 X:00 Y:01 P:A4 SP:E4
C37A  4C A8 C3  JMP  A:00 X:00 Y:01 P:A4 SP:E4
C3A8  A0 00     LDY  A:00 X:00 Y:01 P:A4 SP:E4
C3AA  84 C1     STY  A:00 X:00 Y:00 P:26 SP:E4
C3AC  8C 31 03  STY  A:00 X:00 Y:00 P:26 SP:E4
C3AF  C8        INY  A:00 X:00 Y:00 P:26 SP:E4
C3B0  8C FF 05  STY  A:00 X:00 Y:01 P:24 SP:E4
C3B3  A4 BB     LDY  A:00 X:00 Y:01 P:24 SP:E4
C3B5  D0 02     BNE  A:00 X:00 Y:00 P:26 SP:E4
C3B7  85 BB     STA  A:00 X:00 Y:00 P:26 SP:E4
C3B9  AC 2B 03  LDY  A:00 X:00 Y:00 P:26 SP:E4
C3BC  D0 03     BNE  A:00 X:00 Y:00 P:26 SP:E4
C3BE  8D 2B 03  STA  A:00 X:00 Y:00 P:26 SP:E4
C3C1  60        RTS  A:00 X:00 Y:00 P:26 SP:E4
3601  A0 A0     LDY  A:00 X:00 Y:00 P:26 SP:E6
3603  A0 AC     LDY  A:00 X:00 Y:A0 P:A4 SP:E6
3605  AC AC 00  LDY  A:00 X:00 Y:AC P:A4 SP:E6
3608  00 00     BRK  A:00 X:00 Y:00 P:26 SP:E6
C000  D8        CLD  A:00 X:00 Y:00 P:26 SP:E3
C001  78        SEI  A:00 X:00 Y:00 P:26 SP:E3
C002  AD 02 20  LDA  A:00 X:00 Y:00 P:26 SP:E3
READING OUT OF PPU MMIO RANGE!!!
C005  10 FB     BPL  A:00 X:00 Y:00 P:26 SP:E3
C102  B1 29     LDA  A:00 X:00 Y:00 P:26 SP:E3
C104  C0 D0     CPY  A:00 X:00 Y:00 P:26 SP:E3
C106  48        PHA  A:00 X:00 Y:00 P:24 SP:E3
C107  A5 B1     LDA  A:00 X:00 Y:00 P:24 SP:E2
C109  29 03     AND  A:00 X:00 Y:00 P:26 SP:E2
C10B  F0 51     BEQ  A:00 X:00 Y:00 P:26 SP:E2
C15E  4C 5B C3  JMP  A:00 X:00 Y:00 P:26 SP:E2
C35B  20 1F C4  JSR  A:00 X:00 Y:00 P:26 SP:E2
C41F  AD 29 03  LDA  A:00 X:00 Y:00 P:26 SP:E0
C422  85 1F     STA  A:00 X:00 Y:00 P:26 SP:E0
C424  A5 B9     LDA  A:00 X:00 Y:00 P:26 SP:E0
C426  4C 30 C4  JMP  A:00 X:00 Y:00 P:26 SP:E0
C430  38        SEC  A:00 X:00 Y:00 P:26 SP:E0
C431  E5 1F     SBC  A:00 X:00 Y:00 P:27 SP:E0
C433  10 07     BPL  A:00 X:00 Y:00 P:27 SP:E0
C43C  C9 05     CMP  A:00 X:00 Y:00 P:27 SP:E0
C43E  B0 03     BCS  A:00 X:00 Y:00 P:A4 SP:E0
C440  A0 02     LDY  A:00 X:00 Y:00 P:A4 SP:E0
C442  60        RTS  A:00 X:00 Y:02 P:24 SP:E0
C35E  A5 10     LDA  A:00 X:00 Y:02 P:24 SP:E2
C360  29 03     AND  A:00 X:00 Y:02 P:26 SP:E2
C362  88        DEY  A:00 X:00 Y:02 P:26 SP:E2
C363  F0 11     BEQ  A:00 X:00 Y:01 P:24 SP:E2
C365  C9 02     CMP  A:00 X:00 Y:01 P:24 SP:E2
C367  D0 11     BNE  A:00 X:00 Y:01 P:A4 SP:E2
C37A  4C A8 C3  JMP  A:00 X:00 Y:01 P:A4 SP:E2
C3A8  A0 00     LDY  A:00 X:00 Y:01 P:A4 SP:E2
C3AA  84 C1     STY  A:00 X:00 Y:00 P:26 SP:E2
C3AC  8C 31 03  STY  A:00 X:00 Y:00 P:26 SP:E2
C3AF  C8        INY  A:00 X:00 Y:00 P:26 SP:E2
C3B0  8C FF 05  STY  A:00 X:00 Y:01 P:24 SP:E2
C3B3  A4 BB     LDY  A:00 X:00 Y:01 P:24 SP:E2
C3B5  D0 02     BNE  A:00 X:00 Y:00 P:26 SP:E2
C3B7  85 BB     STA  A:00 X:00 Y:00 P:26 SP:E2
C3B9  AC 2B 03  LDY  A:00 X:00 Y:00 P:26 SP:E2
C3BC  D0 03     BNE  A:00 X:00 Y:00 P:26 SP:E2
C3BE  8D 2B 03  STA  A:00 X:00 Y:00 P:26 SP:E2
C3C1  60        RTS  A:00 X:00 Y:00 P:26 SP:E2
3601  00 A0     BRK  A:00 X:00 Y:00 P:26 SP:E4
C000  D8        CLD  A:00 X:00 Y:00 P:26 SP:E1
C001  78        SEI  A:00 X:00 Y:00 P:26 SP:E1
C002  AD 02 20  LDA  A:00 X:00 Y:00 P:26 SP:E1
READING OUT OF PPU MMIO RANGE!!!
C005  10 FB     BPL  A:00 X:00 Y:00 P:26 SP:E1
C102  B1 29     LDA  A:00 X:00 Y:00 P:26 SP:E1
C104  C0 D0     CPY  A:00 X:00 Y:00 P:26 SP:E1
C106  48        PHA  A:00 X:00 Y:00 P:24 SP:E1
C107  A5 B1     LDA  A:00 X:00 Y:00 P:24 SP:E0
C109  29 03     AND  A:00 X:00 Y:00 P:26 SP:E0
C10B  F0 51     BEQ  A:00 X:00 Y:00 P:26 SP:E0
C15E  4C 5B C3  JMP  A:00 X:00 Y:00 P:26 SP:E0
C35B  20 1F C4  JSR  A:00 X:00 Y:00 P:26 SP:E0
C41F  AD 29 03  LDA  A:00 X:00 Y:00 P:26 SP:DE
C422  85 1F     STA  A:00 X:00 Y:00 P:26 SP:DE
C424  A5 B9     LDA  A:00 X:00 Y:00 P:26 SP:DE
C426  4C 30 C4  JMP  A:00 X:00 Y:00 P:26 SP:DE
C430  38        SEC  A:00 X:00 Y:00 P:26 SP:DE
C431  E5 1F     SBC  A:00 X:00 Y:00 P:27 SP:DE
C433  10 07     BPL  A:00 X:00 Y:00 P:27 SP:DE
C43C  C9 05     CMP  A:00 X:00 Y:00 P:27 SP:DE
C43E  B0 03     BCS  A:00 X:00 Y:00 P:A4 SP:DE
C440  A0 02     LDY  A:00 X:00 Y:00 P:A4 SP:DE
C442  60        RTS  A:00 X:00 Y:02 P:24 SP:DE
C35E  A5 10     LDA  A:00 X:00 Y:02 P:24 SP:E0
C360  29 03     AND  A:00 X:00 Y:02 P:26 SP:E0
C362  88        DEY  A:00 X:00 Y:02 P:26 SP:E0
C363  F0 11     BEQ  A:00 X:00 Y:01 P:24 SP:E0
C365  C9 02     CMP  A:00 X:00 Y:01 P:24 SP:E0
C367  D0 11     BNE  A:00 X:00 Y:01 P:A4 SP:E0
C37A  4C A8 C3  JMP  A:00 X:00 Y:01 P:A4 SP:E0
C3A8  A0 00     LDY  A:00 X:00 Y:01 P:A4 SP:E0
C3AA  84 C1     STY  A:00 X:00 Y:00 P:26 SP:E0
C3AC  8C 31 03  STY  A:00 X:00 Y:00 P:26 SP:E0
C3AF  C8        INY  A:00 X:00 Y:00 P:26 SP:E0
C3B0  8C FF 05  STY  A:00 X:00 Y:01 P:24 SP:E0
C3B3  A4 BB     LDY  A:00 X:00 Y:01 P:24 SP:E0
C3B5  D0 02     BNE  A:00 X:00 Y:00 P:26 SP:E0
C3B7  85 BB     STA  A:00 X:00 Y:00 P:26 SP:E0
C3B9  AC 2B 03  LDY  A:00 X:00 Y:00 P:26 SP:E0
C3BC  D0 03     BNE  A:00 X:00 Y:00 P:26 SP:E0
C3BE  8D 2B 03  STA  A:00 X:00 Y:00 P:26 SP:E0
C3C1  60        RTS  A:00 X:00 Y:00 P:26 SP:E0
3601  A0 A0     LDY  A:00 X:00 Y:00 P:26 SP:E2
3603  A0 AC     LDY  A:00 X:00 Y:A0 P:A4 SP:E2
3605  AC AC 00  LDY  A:00 X:00 Y:AC P:A4 SP:E2
3608  00 00     BRK  A:00 X:00 Y:00 P:26 SP:E2
C000  D8        CLD  A:00 X:00 Y:00 P:26 SP:DF
C001  78        SEI  A:00 X:00 Y:00 P:26 SP:DF
C002  AD 02 20  LDA  A:00 X:00 Y:00 P:26 SP:DF
READING OUT OF PPU MMIO RANGE!!!
C005  10 FB     BPL  A:00 X:00 Y:00 P:26 SP:DF
C102  B1 29     LDA  A:00 X:00 Y:00 P:26 SP:DF
C104  C0 D0     CPY  A:00 X:00 Y:00 P:26 SP:DF
C106  48        PHA  A:00 X:00 Y:00 P:24 SP:DF
C107  A5 B1     LDA  A:00 X:00 Y:00 P:24 SP:DE
C109  29 03     AND  A:00 X:00 Y:00 P:26 SP:DE
C10B  F0 51     BEQ  A:00 X:00 Y:00 P:26 SP:DE
C15E  4C 5B C3  JMP  A:00 X:00 Y:00 P:26 SP:DE
C35B  20 1F C4  JSR  A:00 X:00 Y:00 P:26 SP:DE
C41F  AD 29 03  LDA  A:00 X:00 Y:00 P:26 SP:DC
C422  85 1F     STA  A:00 X:00 Y:00 P:26 SP:DC
C424  A5 B9     LDA  A:00 X:00 Y:00 P:26 SP:DC
C426  4C 30 C4  JMP  A:00 X:00 Y:00 P:26 SP:DC
C430  38        SEC  A:00 X:00 Y:00 P:26 SP:DC
C431  E5 1F     SBC  A:00 X:00 Y:00 P:27 SP:DC
C433  10 07     BPL  A:00 X:00 Y:00 P:27 SP:DC
C43C  C9 05     CMP  A:00 X:00 Y:00 P:27 SP:DC
C43E  B0 03     BCS  A:00 X:00 Y:00 P:A4 SP:DC
C440  A0 02     LDY  A:00 X:00 Y:00 P:A4 SP:DC
C442  60        RTS  A:00 X:00 Y:02 P:24 SP:DC
C35E  A5 10     LDA  A:00 X:00 Y:02 P:24 SP:DE
C360  29 03     AND  A:00 X:00 Y:02 P:26 SP:DE
C362  88        DEY  A:00 X:00 Y:02 P:26 SP:DE
C363  F0 11     BEQ  A:00 X:00 Y:01 P:24 SP:DE
C365  C9 02     CMP  A:00 X:00 Y:01 P:24 SP:DE
C367  D0 11     BNE  A:00 X:00 Y:01 P:A4 SP:DE
C37A  4C A8 C3  JMP  A:00 X:00 Y:01 P:A4 SP:DE
C3A8  A0 00     LDY  A:00 X:00 Y:01 P:A4 SP:DE
C3AA  84 C1     STY  A:00 X:00 Y:00 P:26 SP:DE
C3AC  8C 31 03  STY  A:00 X:00 Y:00 P:26 SP:DE
C3AF  C8        INY  A:00 X:00 Y:00 P:26 SP:DE
C3B0  8C FF 05  STY  A:00 X:00 Y:01 P:24 SP:DE
C3B3  A4 BB     LDY  A:00 X:00 Y:01 P:24 SP:DE
C3B5  D0 02     BNE  A:00 X:00 Y:00 P:26 SP:DE
C3B7  85 BB     STA  A:00 X:00 Y:00 P:26 SP:DE
C3B9  AC 2B 03  LDY  A:00 X:00 Y:00 P:26 SP:DE
C3BC  D0 03     BNE  A:00 X:00 Y:00 P:26 SP:DE
C3BE  8D 2B 03  STA  A:00 X:00 Y:00 P:26 SP:DE
C3C1  60        RTS  A:00 X:00 Y:00 P:26 SP:DE
3601  00 A0     BRK  A:00 X:00 Y:00 P:26 SP:E0
C000  D8        CLD  A:00 X:00 Y:00 P:26 SP:DD
C001  78        SEI  A:00 X:00 Y:00 P:26 SP:DD
C002  AD 02 20  LDA  A:00 X:00 Y:00 P:26 SP:DD
READING OUT OF PPU MMIO RANGE!!!
C005  10 FB     BPL  A:00 X:00 Y:00 P:26 SP:DD
C102  B1 29     LDA  A:00 X:00 Y:00 P:26 SP:DD
C104  C0 D0     CPY  A:00 X:00 Y:00 P:26 SP:DD
C106  48        PHA  A:00 X:00 Y:00 P:24 SP:DD
C107  A5 B1     LDA  A:00 X:00 Y:00 P:24 SP:DC
C109  29 03     AND  A:00 X:00 Y:00 P:26 SP:DC
C10B  F0 51     BEQ  A:00 X:00 Y:00 P:26 SP:DC
C15E  4C 5B C3  JMP  A:00 X:00 Y:00 P:26 SP:DC
C35B  20 1F C4  JSR  A:00 X:00 Y:00 P:26 SP:DC
C41F  AD 29 03  LDA  A:00 X:00 Y:00 P:26 SP:DA
C422  85 1F     STA  A:00 X:00 Y:00 P:26 SP:DA
C424  A5 B9     LDA  A:00 X:00 Y:00 P:26 SP:DA
C426  4C 30 C4  JMP  A:00 X:00 Y:00 P:26 SP:DA
C430  38        SEC  A:00 X:00 Y:00 P:26 SP:DA
C431  E5 1F     SBC  A:00 X:00 Y:00 P:27 SP:DA
C433  10 07     BPL  A:00 X:00 Y:00 P:27 SP:DA
C43C  C9 05     CMP  A:00 X:00 Y:00 P:27 SP:DA
C43E  B0 03     BCS  A:00 X:00 Y:00 P:A4 SP:DA
C440  A0 02     LDY  A:00 X:00 Y:00 P:A4 SP:DA
C442  60        RTS  A:00 X:00 Y:02 P:24 SP:DA
C35E  A5 10     LDA  A:00 X:00 Y:02 P:24 SP:DC
C360  29 03     AND  A:00 X:00 Y:02 P:26 SP:DC
C362  88        DEY  A:00 X:00 Y:02 P:26 SP:DC
C363  F0 11     BEQ  A:00 X:00 Y:01 P:24 SP:DC
C365  C9 02     CMP  A:00 X:00 Y:01 P:24 SP:DC
C367  D0 11     BNE  A:00 X:00 Y:01 P:A4 SP:DC
C37A  4C A8 C3  JMP  A:00 X:00 Y:01 P:A4 SP:DC
C3A8  A0 00     LDY  A:00 X:00 Y:01 P:A4 SP:DC
C3AA  84 C1     STY  A:00 X:00 Y:00 P:26 SP:DC
C3AC  8C 31 03  STY  A:00 X:00 Y:00 P:26 SP:DC
C3AF  C8        INY  A:00 X:00 Y:00 P:26 SP:DC
C3B0  8C FF 05  STY  A:00 X:00 Y:01 P:24 SP:DC
C3B3  A4 BB     LDY  A:00 X:00 Y:01 P:24 SP:DC
C3B5  D0 02     BNE  A:00 X:00 Y:00 P:26 SP:DC
C3B7  85 BB     STA  A:00 X:00 Y:00 P:26 SP:DC
C3B9  AC 2B 03  LDY  A:00 X:00 Y:00 P:26 SP:DC
C3BC  D0 03     BNE  A:00 X:00 Y:00 P:26 SP:DC
C3BE  8D 2B 03  STA  A:00 X:00 Y:00 P:26 SP:DC
C3C1  60        RTS  A:00 X:00 Y:00 P:26 SP:DC
3601  A0 A0     LDY  A:00 X:00 Y:00 P:26 SP:DE
3603  A0 AC     LDY  A:00 X:00 Y:A0 P:A4 SP:DE
3605  AC AC 00  LDY  A:00 X:00 Y:AC P:A4 SP:DE
3608  00 00     BRK  A:00 X:00 Y:00 P:26 SP:DE
C000  D8        CLD  A:00 X:00 Y:00 P:26 SP:DB
C001  78        SEI  A:00 X:00 Y:00 P:26 SP:DB
C002  AD 02 20  LDA  A:00 X:00 Y:00 P:26 SP:DB
READING OUT OF PPU MMIO RANGE!!!
C005  10 FB     BPL  A:00 X:00 Y:00 P:26 SP:DB
C102  B1 29     LDA  A:00 X:00 Y:00 P:26 SP:DB
C104  C0 D0     CPY  A:00 X:00 Y:00 P:26 SP:DB
C106  48        PHA  A:00 X:00 Y:00 P:24 SP:DB
C107  A5 B1     LDA  A:00 X:00 Y:00 P:24 SP:DA
C109  29 03     AND  A:00 X:00 Y:00 P:26 SP:DA
C10B  F0 51     BEQ  A:00 X:00 Y:00 P:26 SP:DA
C15E  4C 5B C3  JMP  A:00 X:00 Y:00 P:26 SP:DA
C35B  20 1F C4  JSR  A:00 X:00 Y:00 P:26 SP:DA
C41F  AD 29 03  LDA  A:00 X:00 Y:00 P:26 SP:D8
C422  85 1F     STA  A:00 X:00 Y:00 P:26 SP:D8
C424  A5 B9     LDA  A:00 X:00 Y:00 P:26 SP:D8
C426  4C 30 C4  JMP  A:00 X:00 Y:00 P:26 SP:D8
C430  38        SEC  A:00 X:00 Y:00 P:26 SP:D8
C431  E5 1F     SBC  A:00 X:00 Y:00 P:27 SP:D8
C433  10 07     BPL  A:00 X:00 Y:00 P:27 SP:D8
C43C  C9 05     CMP  A:00 X:00 Y:00 P:27 SP:D8
C43E  B0 03     BCS  A:00 X:00 Y:00 P:A4 SP:D8
C440  A0 02     LDY  A:00 X:00 Y:00 P:A4 SP:D8
C442  60        RTS  A:00 X:00 Y:02 P:24 SP:D8
C35E  A5 10     LDA  A:00 X:00 Y:02 P:24 SP:DA
C360  29 03     AND  A:00 X:00 Y:02 P:26 SP:DA
C362  88        DEY  A:00 X:00 Y:02 P:26 SP:DA
C363  F0 11     BEQ  A:00 X:00 Y:01 P:24 SP:DA
C365  C9 02     CMP  A:00 X:00 Y:01 P:24 SP:DA
C367  D0 11     BNE  A:00 X:00 Y:01 P:A4 SP:DA
C37A  4C A8 C3  JMP  A:00 X:00 Y:01 P:A4 SP:DA
C3A8  A0 00     LDY  A:00 X:00 Y:01 P:A4 SP:DA
C3AA  84 C1     STY  A:00 X:00 Y:00 P:26 SP:DA
C3AC  8C 31 03  STY  A:00 X:00 Y:00 P:26 SP:DA
C3AF  C8        INY  A:00 X:00 Y:00 P:26 SP:DA
C3B0  8C FF 05  STY  A:00 X:00 Y:01 P:24 SP:DA
C3B3  A4 BB     LDY  A:00 X:00 Y:01 P:24 SP:DA
C3B5  D0 02     BNE  A:00 X:00 Y:00 P:26 SP:DA
C3B7  85 BB     STA  A:00 X:00 Y:00 P:26 SP:DA
C3B9  AC 2B 03  LDY  A:00 X:00 Y:00 P:26 SP:DA
C3BC  D0 03     BNE  A:00 X:00 Y:00 P:26 SP:DA
C3BE  8D 2B 03  STA  A:00 X:00 Y:00 P:26 SP:DA
C3C1  60        RTS  A:00 X:00 Y:00 P:26 SP:DA
3601  00 A0     BRK  A:00 X:00 Y:00 P:26 SP:DC
C000  D8        CLD  A:00 X:00 Y:00 P:26 SP:D9
C001  78        SEI  A:00 X:00 Y:00 P:26 SP:D9
C002  AD 02 20  LDA  A:00 X:00 Y:00 P:26 SP:D9
READING OUT OF PPU MMIO RANGE!!!
C005  10 FB     BPL  A:00 X:00 Y:00 P:26 SP:D9
C102  B1 29     LDA  A:00 X:00 Y:00 P:26 SP:D9
C104  C0 D0     CPY  A:00 X:00 Y:00 P:26 SP:D9
C106  48        PHA  A:00 X:00 Y:00 P:24 SP:D9
C107  A5 B1     LDA  A:00 X:00 Y:00 P:24 SP:D8
C109  29 03     AND  A:00 X:00 Y:00 P:26 SP:D8
C10B  F0 51     BEQ  A:00 X:00 Y:00 P:26 SP:D8
C15E  4C 5B C3  JMP  A:00 X:00 Y:00 P:26 SP:D8
C35B  20 1F C4  JSR  A:00 X:00 Y:00 P:26 SP:D8
C41F  AD 29 03  LDA  A:00 X:00 Y:00 P:26 SP:D6
C422  85 1F     STA  A:00 X:00 Y:00 P:26 SP:D6
C424  A5 B9     LDA  A:00 X:00 Y:00 P:26 SP:D6
C426  4C 30 C4  JMP  A:00 X:00 Y:00 P:26 SP:D6
C430  38        SEC  A:00 X:00 Y:00 P:26 SP:D6
C431  E5 1F     SBC  A:00 X:00 Y:00 P:27 SP:D6
C433  10 07     BPL  A:00 X:00 Y:00 P:27 SP:D6
C43C  C9 05     CMP  A:00 X:00 Y:00 P:27 SP:D6
C43E  B0 03     BCS  A:00 X:00 Y:00 P:A4 SP:D6
C440  A0 02     LDY  A:00 X:00 Y:00 P:A4 SP:D6
C442  60        RTS  A:00 X:00 Y:02 P:24 SP:D6
C35E  A5 10     LDA  A:00 X:00 Y:02 P:24 SP:D8
C360  29 03     AND  A:00 X:00 Y:02 P:26 SP:D8
C362  88        DEY  A:00 X:00 Y:02 P:26 SP:D8
C363  F0 11     BEQ  A:00 X:00 Y:01 P:24 SP:D8
C365  C9 02     CMP  A:00 X:00 Y:01 P:24 SP:D8
C367  D0 11     BNE  A:00 X:00 Y:01 P:A4 SP:D8
C37A  4C A8 C3  JMP  A:00 X:00 Y:01 P:A4 SP:D8
C3A8  A0 00     LDY  A:00 X:00 Y:01 P:A4 SP:D8
C3AA  84 C1     STY  A:00 X:00 Y:00 P:26 SP:D8
C3AC  8C 31 03  STY  A:00 X:00 Y:00 P:26 SP:D8
C3AF  C8        INY  A:00 X:00 Y:00 P:26 SP:D8
C3B0  8C FF 05  STY  A:00 X:00 Y:01 P:24 SP:D8
C3B3  A4 BB     LDY  A:00 X:00 Y:01 P:24 SP:D8
C3B5  D0 02     BNE  A:00 X:00 Y:00 P:26 SP:D8
C3B7  85 BB     STA  A:00 X:00 Y:00 P:26 SP:D8
C3B9  AC 2B 03  LDY  A:00 X:00 Y:00 P:26 SP:D8
C3BC  D0 03     BNE  A:00 X:00 Y:00 P:26 SP:D8
C3BE  8D 2B 03  STA  A:00 X:00 Y:00 P:26 SP:D8
C3C1  60        RTS  A:00 X:00 Y:00 P:26 SP:D8
3601  A0 A0     LDY  A:00 X:00 Y:00 P:26 SP:DA
3603  A0 AC     LDY  A:00 X:00 Y:A0 P:A4 SP:DA
3605  AC AC 00  LDY  A:00 X:00 Y:AC P:A4 SP:DA
3608  00 00     BRK  A:00 X:00 Y:00 P:26 SP:DA
C000  D8        CLD  A:00 X:00 Y:00 P:26 SP:D7
C001  78        SEI  A:00 X:00 Y:00 P:26 SP:D7
C002  AD 02 20  LDA  A:00 X:00 Y:00 P:26 SP:D7
READING OUT OF PPU MMIO RANGE!!!
C005  10 FB     BPL  A:00 X:00 Y:00 P:26 SP:D7
C102  B1 29     LDA  A:00 X:00 Y:00 P:26 SP:D7
C104  C0 D0     CPY  A:00 X:00 Y:00 P:26 SP:D7
C106  48        PHA  A:00 X:00 Y:00 P:24 SP:D7
C107  A5 B1     LDA  A:00 X:00 Y:00 P:24 SP:D6
C109  29 03     AND  A:00 X:00 Y:00 P:26 SP:D6
C10B  F0 51     BEQ  A:00 X:00 Y:00 P:26 SP:D6
C15E  4C 5B C3  JMP  A:00 X:00 Y:00 P:26 SP:D6
C35B  20 1F C4  JSR  A:00 X:00 Y:00 P:26 SP:D6
C41F  AD 29 03  LDA  A:00 X:00 Y:00 P:26 SP:D4
C422  85 1F     STA  A:00 X:00 Y:00 P:26 SP:D4
C424  A5 B9     LDA  A:00 X:00 Y:00 P:26 SP:D4
C426  4C 30 C4  JMP  A:00 X:00 Y:00 P:26 SP:D4
C430  38        SEC  A:00 X:00 Y:00 P:26 SP:D4
C431  E5 1F     SBC  A:00 X:00 Y:00 P:27 SP:D4
C433  10 07     BPL  A:00 X:00 Y:00 P:27 SP:D4
C43C  C9 05     CMP  A:00 X:00 Y:00 P:27 SP:D4
C43E  B0 03     BCS  A:00 X:00 Y:00 P:A4 SP:D4
C440  A0 02     LDY  A:00 X:00 Y:00 P:A4 SP:D4
C442  60        RTS  A:00 X:00 Y:02 P:24 SP:D4
C35E  A5 10     LDA  A:00 X:00 Y:02 P:24 SP:D6
C360  29 03     AND  A:00 X:00 Y:02 P:26 SP:D6
C362  88        DEY  A:00 X:00 Y:02 P:26 SP:D6
C363  F0 11     BEQ  A:00 X:00 Y:01 P:24 SP:D6
C365  C9 02     CMP  A:00 X:00 Y:01 P:24 SP:D6
C367  D0 11     BNE  A:00 X:00 Y:01 P:A4 SP:D6
C37A  4C A8 C3  JMP  A:00 X:00 Y:01 P:A4 SP:D6
C3A8  A0 00     LDY  A:00 X:00 Y:01 P:A4 SP:D6
C3AA  84 C1     STY  A:00 X:00 Y:00 P:26 SP:D6
C3AC  8C 31 03  STY  A:00 X:00 Y:00 P:26 SP:D6
C3AF  C8        INY  A:00 X:00 Y:00 P:26 SP:D6
C3B0  8C FF 05  STY  A:00 X:00 Y:01 P:24 SP:D6
C3B3  A4 BB     LDY  A:00 X:00 Y:01 P:24 SP:D6
C3B5  D0 02     BNE  A:00 X:00 Y:00 P:26 SP:D6
C3B7  85 BB     STA  A:00 X:00 Y:00 P:26 SP:D6
C3B9  AC 2B 03  LDY  A:00 X:00 Y:00 P:26 SP:D6
C3BC  D0 03     BNE  A:00 X:00 Y:00 P:26 SP:D6
C3BE  8D 2B 03  STA  A:00 X:00 Y:00 P:26 SP:D6
C3C1  60        RTS  A:00 X:00 Y:00 P:26 SP:D6
3601  00 A0     BRK  A:00 X:00 Y:00 P:26 SP:D8
C000  D8        CLD  A:00 X:00 Y:00 P:26 SP:D5
C001  78        SEI  A:00 X:00 Y:00 P:26 SP:D5
C002  AD 02 20  LDA  A:00 X:00 Y:00 P:26 SP:D5
READING OUT OF PPU MMIO RANGE!!!
C005  10 FB     BPL  A:00 X:00 Y:00 P:26 SP:D5
C102  B1 29     LDA  A:00 X:00 Y:00 P:26 SP:D5
C104  C0 D0     CPY  A:00 X:00 Y:00 P:26 SP:D5
C106  48        PHA  A:00 X:00 Y:00 P:24 SP:D5
C107  A5 B1     LDA  A:00 X:00 Y:00 P:24 SP:D4
C109  29 03     AND  A:00 X:00 Y:00 P:26 SP:D4
C10B  F0 51     BEQ  A:00 X:00 Y:00 P:26 SP:D4
C15E  4C 5B C3  JMP  A:00 X:00 Y:00 P:26 SP:D4
C35B  20 1F C4  JSR  A:00 X:00 Y:00 P:26 SP:D4
C41F  AD 29 03  LDA  A:00 X:00 Y:00 P:26 SP:D2
C422  85 1F     STA  A:00 X:00 Y:00 P:26 SP:D2
C424  A5 B9     LDA  A:00 X:00 Y:00 P:26 SP:D2
C426  4C 30 C4  JMP  A:00 X:00 Y:00 P:26 SP:D2
C430  38        SEC  A:00 X:00 Y:00 P:26 SP:D2
C431  E5 1F     SBC  A:00 X:00 Y:00 P:27 SP:D2
C433  10 07     BPL  A:00 X:00 Y:00 P:27 SP:D2
C43C  C9 05     CMP  A:00 X:00 Y:00 P:27 SP:D2
C43E  B0 03     BCS  A:00 X:00 Y:00 P:A4 SP:D2
C440  A0 02     LDY  A:00 X:00 Y:00 P:A4 SP:D2
C442  60        RTS  A:00 X:00 Y:02 P:24 SP:D2
C35E  A5 10     LDA  A:00 X:00 Y:02 P:24 SP:D4
C360  29 03     AND  A:00 X:00 Y:02 P:26 SP:D4
C362  88        DEY  A:00 X:00 Y:02 P:26 SP:D4
C363  F0 11     BEQ  A:00 X:00 Y:01 P:24 SP:D4
C365  C9 02     CMP  A:00 X:00 Y:01 P:24 SP:D4
C367  D0 11     BNE  A:00 X:00 Y:01 P:A4 SP:D4
C37A  4C A8 C3  JMP  A:00 X:00 Y:01 P:A4 SP:D4
C3A8  A0 00     LDY  A:00 X:00 Y:01 P:A4 SP:D4
C3AA  84 C1     STY  A:00 X:00 Y:00 P:26 SP:D4
C3AC  8C 31 03  STY  A:00 X:00 Y:00 P:26 SP:D4
C3AF  C8        INY  A:00 X:00 Y:00 P:26 SP:D4
C3B0  8C FF 05  STY  A:00 X:00 Y:01 P:24 SP:D4
C3B3  A4 BB     LDY  A:00 X:00 Y:01 P:24 SP:D4
C3B5  D0 02     BNE  A:00 X:00 Y:00 P:26 SP:D4
C3B7  85 BB     STA  A:00 X:00 Y:00 P:26 SP:D4
C3B9  AC 2B 03  LDY  A:00 X:00 Y:00 P:26 SP:D4
C3BC  D0 03     BNE  A:00 X:00 Y:00 P:26 SP:D4
C3BE  8D 2B 03  STA  A:00 X:00 Y:00 P:26 SP:D4
C3C1  60        RTS  A:00 X:00 Y:00 P:26 SP:D4
3601  A0 A0     LDY  A:00 X:00 Y:00 P:26 SP:D6
3603  A0 AC     LDY  A:00 X:00 Y:A0 P:A4 SP:D6
3605  AC AC 00  LDY  A:00 X:00 Y:AC P:A4 SP:D6
3608  00 00     BRK  A:00 X:00 Y:00 P:26 SP:D6
C000  D8        CLD  A:00 X:00 Y:00 P:26 SP:D3
C001  78        SEI  A:00 X:00 Y:00 P:26 SP:D3
C002  AD 02 20  LDA  A:00 X:00 Y:00 P:26 SP:D3
READING OUT OF PPU MMIO RANGE!!!
C005  10 FB     BPL  A:00 X:00 Y:00 P:26 SP:D3
C102  B1 29     LDA  A:00 X:00 Y:00 P:26 SP:D3
C104  C0 D0     CPY  A:00 X:00 Y:00 P:26 SP:D3
C106  48        PHA  A:00 X:00 Y:00 P:24 SP:D3
C107  A5 B1     LDA  A:00 X:00 Y:00 P:24 SP:D2
C109  29 03     AND  A:00 X:00 Y:00 P:26 SP:D2
C10B  F0 51     BEQ  A:00 X:00 Y:00 P:26 SP:D2
C15E  4C 5B C3  JMP  A:00 X:00 Y:00 P:26 SP:D2
C35B  20 1F C4  JSR  A:00 X:00 Y:00 P:26 SP:D2
C41F  AD 29 03  LDA  A:00 X:00 Y:00 P:26 SP:D0
C422  85 1F     STA  A:00 X:00 Y:00 P:26 SP:D0
C424  A5 B9     LDA  A:00 X:00 Y:00 P:26 SP:D0
C426  4C 30 C4  JMP  A:00 X:00 Y:00 P:26 SP:D0
C430  38        SEC  A:00 X:00 Y:00 P:26 SP:D0
C431  E5 1F     SBC  A:00 X:00 Y:00 P:27 SP:D0
C433  10 07     BPL  A:00 X:00 Y:00 P:27 SP:D0
C43C  C9 05     CMP  A:00 X:00 Y:00 P:27 SP:D0
C43E  B0 03     BCS  A:00 X:00 Y:00 P:A4 SP:D0
C440  A0 02     LDY  A:00 X:00 Y:00 P:A4 SP:D0
C442  60        RTS  A:00 X:00 Y:02 P:24 SP:D0
C35E  A5 10     LDA  A:00 X:00 Y:02 P:24 SP:D2
C360  29 03     AND  A:00 X:00 Y:02 P:26 SP:D2
C362  88        DEY  A:00 X:00 Y:02 P:26 SP:D2
C363  F0 11     BEQ  A:00 X:00 Y:01 P:24 SP:D2
C365  C9 02     CMP  A:00 X:00 Y:01 P:24 SP:D2
C367  D0 11     BNE  A:00 X:00 Y:01 P:A4 SP:D2
C37A  4C A8 C3  JMP  A:00 X:00 Y:01 P:A4 SP:D2
C3A8  A0 00     LDY  A:00 X:00 Y:01 P:A4 SP:D2
C3AA  84 C1     STY  A:00 X:00 Y:00 P:26 SP:D2
C3AC  8C 31 03  STY  A:00 X:00 Y:00 P:26 SP:D2
C3AF  C8        INY  A:00 X:00 Y:00 P:26 SP:D2
C3B0  8C FF 05  STY  A:00 X:00 Y:01 P:24 SP:D2
C3B3  A4 BB     LDY  A:00 X:00 Y:01 P:24 SP:D2
C3B5  D0 02     BNE  A:00 X:00 Y:00 P:26 SP:D2
C3B7  85 BB     STA  A:00 X:00 Y:00 P:26 SP:D2
C3B9  AC 2B 03  LDY  A:00 X:00 Y:00 P:26 SP:D2
C3BC  D0 03     BNE  A:00 X:00 Y:00 P:26 SP:D2
C3BE  8D 2B 03  STA  A:00 X:00 Y:00 P:26 SP:D2
C3C1  60        RTS  A:00 X:00 Y:00 P:26 SP:D2
3601  00 A0     BRK  A:00 X:00 Y:00 P:26 SP:D4
C000  D8        CLD  A:00 X:00 Y:00 P:26 SP:D1
C001  78        SEI  A:00 X:00 Y:00 P:26 SP:D1
C002  AD 02 20  LDA  A:00 X:00 Y:00 P:26 SP:D1
READING OUT OF PPU MMIO RANGE!!!
C005  10 FB     BPL  A:00 X:00 Y:00 P:26 SP:D1
C102  B1 29     LDA  A:00 X:00 Y:00 P:26 SP:D1
C104  C0 D0     CPY  A:00 X:00 Y:00 P:26 SP:D1
C106  48        PHA  A:00 X:00 Y:00 P:24 SP:D1
C107  A5 B1     LDA  A:00 X:00 Y:00 P:24 SP:D0
C109  29 03     AND  A:00 X:00 Y:00 P:26 SP:D0
C10B  F0 51     BEQ  A:00 X:00 Y:00 P:26 SP:D0
C15E  4C 5B C3  JMP  A:00 X:00 Y:00 P:26 SP:D0
C35B  20 1F C4  JSR  A:00 X:00 Y:00 P:26 SP:D0
C41F  AD 29 03  LDA  A:00 X:00 Y:00 P:26 SP:CE
C422  85 1F     STA  A:00 X:00 Y:00 P:26 SP:CE
C424  A5 B9     LDA  A:00 X:00 Y:00 P:26 SP:CE
C426  4C 30 C4  JMP  A:00 X:00 Y:00 P:26 SP:CE
C430  38        SEC  A:00 X:00 Y:00 P:26 SP:CE
C431  E5 1F     SBC  A:00 X:00 Y:00 P:27 SP:CE
C433  10 07     BPL  A:00 X:00 Y:00 P:27 SP:CE
C43C  C9 05     CMP  A:00 X:00 Y:00 P:27 SP:CE
C43E  B0 03     BCS  A:00 X:00 Y:00 P:A4 SP:CE
C440  A0 02     LDY  A:00 X:00 Y:00 P:A4 SP:CE
C442  60        RTS  A:00 X:00 Y:02 P:24 SP:CE
C35E  A5 10     LDA  A:00 X:00 Y:02 P:24 SP:D0
C360  29 03     AND  A:00 X:00 Y:02 P:26 SP:D0
C362  88        DEY  A:00 X:00 Y:02 P:26 SP:D0
C363  F0 11     BEQ  A:00 X:00 Y:01 P:24 SP:D0
C365  C9 02     CMP  A:00 X:00 Y:01 P:24 SP:D0
C367  D0 11     BNE  A:00 X:00 Y:01 P:A4 SP:D0
C37A  4C A8 C3  JMP  A:00 X:00 Y:01 P:A4 SP:D0
C3A8  A0 00     LDY  A:00 X:00 Y:01 P:A4 SP:D0
C3AA  84 C1     STY  A:00 X:00 Y:00 P:26 SP:D0
C3AC  8C 31 03  STY  A:00 X:00 Y:00 P:26 SP:D0
C3AF  C8        INY  A:00 X:00 Y:00 P:26 SP:D0
C3B0  8C FF 05  STY  A:00 X:00 Y:01 P:24 SP:D0
C3B3  A4 BB     LDY  A:00 X:00 Y:01 P:24 SP:D0
C3B5  D0 02     BNE  A:00 X:00 Y:00 P:26 SP:D0
C3B7  85 BB     STA  A:00 X:00 Y:00 P:26 SP:D0
C3B9  AC 2B 03  LDY  A:00 X:00 Y:00 P:26 SP:D0
C3BC  D0 03     BNE  A:00 X:00 Y:00 P:26 SP:D0
C3BE  8D 2B 03  STA  A:00 X:00 Y:00 P:26 SP:D0
C3C1  60        RTS  A:00 X:00 Y:00 P:26 SP:D0
3601  A0 A0     LDY  A:00 X:00 Y:00 P:26 SP:D2
3603  A0 AC     LDY  A:00 X:00 Y:A0 P:A4 SP:D2
3605  AC AC 00  LDY  A:00 X:00 Y:AC P:A4 SP:D2
3608  00 00     BRK  A:00 X:00 Y:00 P:26 SP:D2
C000  D8        CLD  A:00 X:00 Y:00 P:26 SP:CF
C001  78        SEI  A:00 X:00 Y:00 P:26 SP:CF
C002  AD 02 20  LDA  A:00 X:00 Y:00 P:26 SP:CF
READING OUT OF PPU MMIO RANGE!!!
C005  10 FB     BPL  A:00 X:00 Y:00 P:26 SP:CF
C102  B1 29     LDA  A:00 X:00 Y:00 P:26 SP:CF
C104  C0 D0     CPY  A:00 X:00 Y:00 P:26 SP:CF
C106  48        PHA  A:00 X:00 Y:00 P:24 SP:CF
C107  A5 B1     LDA  A:00 X:00 Y:00 P:24 SP:CE
C109  29 03     AND  A:00 X:00 Y:00 P:26 SP:CE
C10B  F0 51     BEQ  A:00 X:00 Y:00 P:26 SP:CE
C15E  4C 5B C3  JMP  A:00 X:00 Y:00 P:26 SP:CE
C35B  20 1F C4  JSR  A:00 X:00 Y:00 P:26 SP:CE
C41F  AD 29 03  LDA  A:00 X:00 Y:00 P:26 SP:CC
C422  85 1F     STA  A:00 X:00 Y:00 P:26 SP:CC
C424  A5 B9     LDA  A:00 X:00 Y:00 P:26 SP:CC
C426  4C 30 C4  JMP  A:00 X:00 Y:00 P:26 SP:CC
C430  38        SEC  A:00 X:00 Y:00 P:26 SP:CC
C431  E5 1F     SBC  A:00 X:00 Y:00 P:27 SP:CC
C433  10 07     BPL  A:00 X:00 Y:00 P:27 SP:CC
C43C  C9 05     CMP  A:00 X:00 Y:00 P:27 SP:CC
C43E  B0 03     BCS  A:00 X:00 Y:00 P:A4 SP:CC
C440  A0 02     LDY  A:00 X:00 Y:00 P:A4 SP:CC
C442  60        RTS  A:00 X:00 Y:02 P:24 SP:CC
C35E  A5 10     LDA  A:00 X:00 Y:02 P:24 SP:CE
C360  29 03     AND  A:00 X:00 Y:02 P:26 SP:CE
C362  88        DEY  A:00 X:00 Y:02 P:26 SP:CE
C363  F0 11     BEQ  A:00 X:00 Y:01 P:24 SP:CE
C365  C9 02     CMP  A:00 X:00 Y:01 P:24 SP:CE
C367  D0 11     BNE  A:00 X:00 Y:01 P:A4 SP:CE
C37A  4C A8 C3  JMP  A:00 X:00 Y:01 P:A4 SP:CE
C3A8  A0 00     LDY  A:00 X:00 Y:01 P:A4 SP:CE
C3AA  84 C1     STY  A:00 X:00 Y:00 P:26 SP:CE
C3AC  8C 31 03  STY  A:00 X:00 Y:00 P:26 SP:CE
C3AF  C8        INY  A:00 X:00 Y:00 P:26 SP:CE
C3B0  8C FF 05  STY  A:00 X:00 Y:01 P:24 SP:CE
C3B3  A4 BB     LDY  A:00 X:00 Y:01 P:24 SP:CE
C3B5  D0 02     BNE  A:00 X:00 Y:00 P:26 SP:CE
C3B7  85 BB     STA  A:00 X:00 Y:00 P:26 SP:CE
C3B9  AC 2B 03  LDY  A:00 X:00 Y:00 P:26 SP:CE
C3BC  D0 03     BNE  A:00 X:00 Y:00 P:26 SP:CE
C3BE  8D 2B 03  STA  A:00 X:00 Y:00 P:26 SP:CE
C3C1  60        RTS  A:00 X:00 Y:00 P:26 SP:CE
3601  00 A0     BRK  A:00 X:00 Y:00 P:26 SP:D0
C000  D8        CLD  A:00 X:00 Y:00 P:26 SP:CD
C001  78        SEI  A:00 X:00 Y:00 P:26 SP:CD
C002  AD 02 20  LDA  A:00 X:00 Y:00 P:26 SP:CD
READING OUT OF PPU MMIO RANGE!!!
C005  10 FB     BPL  A:00 X:00 Y:00 P:26 SP:CD
C102  B1 29     LDA  A:00 X:00 Y:00 P:26 SP:CD
C104  C0 D0     CPY  A:00 X:00 Y:00 P:26 SP:CD
C106  48        PHA  A:00 X:00 Y:00 P:24 SP:CD
C107  A5 B1     LDA  A:00 X:00 Y:00 P:24 SP:CC
C109  29 03     AND  A:00 X:00 Y:00 P:26 SP:CC
C10B  F0 51     BEQ  A:00 X:00 Y:00 P:26 SP:CC
C15E  4C 5B C3  JMP  A:00 X:00 Y:00 P:26 SP:CC
C35B  20 1F C4  JSR  A:00 X:00 Y:00 P:26 SP:CC
C41F  AD 29 03  LDA  A:00 X:00 Y:00 P:26 SP:CA
C422  85 1F     STA  A:00 X:00 Y:00 P:26 SP:CA
C424  A5 B9     LDA  A:00 X:00 Y:00 P:26 SP:CA
C426  4C 30 C4  JMP  A:00 X:00 Y:00 P:26 SP:CA
C430  38        SEC  A:00 X:00 Y:00 P:26 SP:CA
C431  E5 1F     SBC  A:00 X:00 Y:00 P:27 SP:CA
C433  10 07     BPL  A:00 X:00 Y:00 P:27 SP:CA
C43C  C9 05     CMP  A:00 X:00 Y:00 P:27 SP:CA
C43E  B0 03     BCS  A:00 X:00 Y:00 P:A4 SP:CA
C440  A0 02     LDY  A:00 X:00 Y:00 P:A4 SP:CA
C442  60        RTS  A:00 X:00 Y:02 P:24 SP:CA
C35E  A5 10     LDA  A:00 X:00 Y:02 P:24 SP:CC
C360  29 03     AND  A:00 X:00 Y:02 P:26 SP:CC
C362  88        DEY  A:00 X:00 Y:02 P:26 SP:CC
C363  F0 11     BEQ  A:00 X:00 Y:01 P:24 SP:CC
C365  C9 02     CMP  A:00 X:00 Y:01 P:24 SP:CC
C367  D0 11     BNE  A:00 X:00 Y:01 P:A4 SP:CC
C37A  4C A8 C3  JMP  A:00 X:00 Y:01 P:A4 SP:CC
C3A8  A0 00     LDY  A:00 X:00 Y:01 P:A4 SP:CC
C3AA  84 C1     STY  A:00 X:00 Y:00 P:26 SP:CC
C3AC  8C 31 03  STY  A:00 X:00 Y:00 P:26 SP:CC
C3AF  C8        INY  A:00 X:00 Y:00 P:26 SP:CC
C3B0  8C FF 05  STY  A:00 X:00 Y:01 P:24 SP:CC
C3B3  A4 BB     LDY  A:00 X:00 Y:01 P:24 SP:CC
C3B5  D0 02     BNE  A:00 X:00 Y:00 P:26 SP:CC
C3B7  85 BB     STA  A:00 X:00 Y:00 P:26 SP:CC
C3B9  AC 2B 03  LDY  A:00 X:00 Y:00 P:26 SP:CC
C3BC  D0 03     BNE  A:00 X:00 Y:00 P:26 SP:CC
C3BE  8D 2B 03  STA  A:00 X:00 Y:00 P:26 SP:CC
C3C1  60        RTS  A:00 X:00 Y:00 P:26 SP:CC
3601  A0 A0     LDY  A:00 X:00 Y:00 P:26 SP:CE
3603  A0 AC     LDY  A:00 X:00 Y:A0 P:A4 SP:CE
3605  AC AC 00  LDY  A:00 X:00 Y:AC P:A4 SP:CE
3608  00 00     BRK  A:00 X:00 Y:00 P:26 SP:CE
C000  D8        CLD  A:00 X:00 Y:00 P:26 SP:CB
C001  78        SEI  A:00 X:00 Y:00 P:26 SP:CB
C002  AD 02 20  LDA  A:00 X:00 Y:00 P:26 SP:CB
READING OUT OF PPU MMIO RANGE!!!
C005  10 FB     BPL  A:00 X:00 Y:00 P:26 SP:CB
C102  B1 29     LDA  A:00 X:00 Y:00 P:26 SP:CB
C104  C0 D0     CPY  A:00 X:00 Y:00 P:26 SP:CB
C106  48        PHA  A:00 X:00 Y:00 P:24 SP:CB
C107  A5 B1     LDA  A:00 X:00 Y:00 P:24 SP:CA
C109  29 03     AND  A:00 X:00 Y:00 P:26 SP:CA
C10B  F0 51     BEQ  A:00 X:00 Y:00 P:26 SP:CA
C15E  4C 5B C3  JMP  A:00 X:00 Y:00 P:26 SP:CA
C35B  20 1F C4  JSR  A:00 X:00 Y:00 P:26 SP:CA
C41F  AD 29 03  LDA  A:00 X:00 Y:00 P:26 SP:C8
C422  85 1F     STA  A:00 X:00 Y:00 P:26 SP:C8
C424  A5 B9     LDA  A:00 X:00 Y:00 P:26 SP:C8
C426  4C 30 C4  JMP  A:00 X:00 Y:00 P:26 SP:C8
C430  38        SEC  A:00 X:00 Y:00 P:26 SP:C8
C431  E5 1F     SBC  A:00 X:00 Y:00 P:27 SP:C8
C433  10 07     BPL  A:00 X:00 Y:00 P:27 SP:C8
C43C  C9 05     CMP  A:00 X:00 Y:00 P:27 SP:C8
C43E  B0 03     BCS  A:00 X:00 Y:00 P:A4 SP:C8
C440  A0 02     LDY  A:00 X:00 Y:00 P:A4 SP:C8
C442  60        RTS  A:00 X:00 Y:02 P:24 SP:C8
C35E  A5 10     LDA  A:00 X:00 Y:02 P:24 SP:CA
C360  29 03     AND  A:00 X:00 Y:02 P:26 SP:CA
C362  88        DEY  A:00 X:00 Y:02 P:26 SP:CA
C363  F0 11     BEQ  A:00 X:00 Y:01 P:24 SP:CA
C365  C9 02     CMP  A:00 X:00 Y:01 P:24 SP:CA
C367  D0 11     BNE  A:00 X:00 Y:01 P:A4 SP:CA
C37A  4C A8 C3  JMP  A:00 X:00 Y:01 P:A4 SP:CA
C3A8  A0 00     LDY  A:00 X:00 Y:01 P:A4 SP:CA
C3AA  84 C1     STY  A:00 X:00 Y:00 P:26 SP:CA
C3AC  8C 31 03  STY  A:00 X:00 Y:00 P:26 SP:CA
C3AF  C8        INY  A:00 X:00 Y:00 P:26 SP:CA
C3B0  8C FF 05  STY  A:00 X:00 Y:01 P:24 SP:CA
C3B3  A4 BB     LDY  A:00 X:00 Y:01 P:24 SP:CA
C3B5  D0 02     BNE  A:00 X:00 Y:00 P:26 SP:CA
C3B7  85 BB     STA  A:00 X:00 Y:00 P:26 SP:CA
C3B9  AC 2B 03  LDY  A:00 X:00 Y:00 P:26 SP:CA
C3BC  D0 03     BNE  A:00 X:00 Y:00 P:26 SP:CA
C3BE  8D 2B 03  STA  A:00 X:00 Y:00 P:26 SP:CA
C3C1  60        RTS  A:00 X:00 Y:00 P:26 SP:CA
3601  00 A0     BRK  A:00 X:00 Y:00 P:26 SP:CC
C000  D8        CLD  A:00 X:00 Y:00 P:26 SP:C9
C001  78        SEI  A:00 X:00 Y:00 P:26 SP:C9
C002  AD 02 20  LDA  A:00 X:00 Y:00 P:26 SP:C9
READING OUT OF PPU MMIO RANGE!!!
C005  10 FB     BPL  A:00 X:00 Y:00 P:26 SP:C9
C102  B1 29     LDA  A:00 X:00 Y:00 P:26 SP:C9
C104  C0 D0     CPY  A:00 X:00 Y:00 P:26 SP:C9
C106  48        PHA  A:00 X:00 Y:00 P:24 SP:C9
C107  A5 B1     LDA  A:00 X:00 Y:00 P:24 SP:C8
C109  29 03     AND  A:00 X:00 Y:00 P:26 SP:C8
C10B  F0 51     BEQ  A:00 X:00 Y:00 P:26 SP:C8
C15E  4C 5B C3  JMP  A:00 X:00 Y:00 P:26 SP:C8
C35B  20 1F C4  JSR  A:00 X:00 Y:00 P:26 SP:C8
C41F  AD 29 03  LDA  A:00 X:00 Y:00 P:26 SP:C6
C422  85 1F     STA  A:00 X:00 Y:00 P:26 SP:C6
C424  A5 B9     LDA  A:00 X:00 Y:00 P:26 SP:C6
C426  4C 30 C4  JMP  A:00 X:00 Y:00 P:26 SP:C6
C430  38        SEC  A:00 X:00 Y:00 P:26 SP:C6
C431  E5 1F     SBC  A:00 X:00 Y:00 P:27 SP:C6
C433  10 07     BPL  A:00 X:00 Y:00 P:27 SP:C6
C43C  C9 05     CMP  A:00 X:00 Y:00 P:27 SP:C6
C43E  B0 03     BCS  A:00 X:00 Y:00 P:A4 SP:C6
C440  A0 02     LDY  A:00 X:00 Y:00 P:A4 SP:C6
C442  60        RTS  A:00 X:00 Y:02 P:24 SP:C6
C35E  A5 10     LDA  A:00 X:00 Y:02 P:24 SP:C8
C360  29 03     AND  A:00 X:00 Y:02 P:26 SP:C8
C362  88        DEY  A:00 X:00 Y:02 P:26 SP:C8
C363  F0 11     BEQ  A:00 X:00 Y:01 P:24 SP:C8
C365  C9 02     CMP  A:00 X:00 Y:01 P:24 SP:C8
C367  D0 11     BNE  A:00 X:00 Y:01 P:A4 SP:C8
C37A  4C A8 C3  JMP  A:00 X:00 Y:01 P:A4 SP:C8
C3A8  A0 00     LDY  A:00 X:00 Y:01 P:A4 SP:C8
C3AA  84 C1     STY  A:00 X:00 Y:00 P:26 SP:C8
C3AC  8C 31 03  STY  A:00 X:00 Y:00 P:26 SP:C8
C3AF  C8        INY  A:00 X:00 Y:00 P:26 SP:C8
C3B0  8C FF 05  STY  A:00 X:00 Y:01 P:24 SP:C8
C3B3  A4 BB     LDY  A:00 X:00 Y:01 P:24 SP:C8
C3B5  D0 02     BNE  A:00 X:00 Y:00 P:26 SP:C8
C3B7  85 BB     STA  A:00 X:00 Y:00 P:26 SP:C8
C3B9  AC 2B 03  LDY  A:00 X:00 Y:00 P:26 SP:C8
C3BC  D0 03     BNE  A:00 X:00 Y:00 P:26 SP:C8
C3BE  8D 2B 03  STA  A:00 X:00 Y:00 P:26 SP:C8
C3C1  60        RTS  A:00 X:00 Y:00 P:26 SP:C8
3601  A0 A0     LDY  A:00 X:00 Y:00 P:26 SP:CA
3603  A0 AC     LDY  A:00 X:00 Y:A0 P:A4 SP:CA
3605  AC AC 00  LDY  A:00 X:00 Y:AC P:A4 SP:CA
3608  00 00     BRK  A:00 X:00 Y:00 P:26 SP:CA
C000  D8        CLD  A:00 X:00 Y:00 P:26 SP:C7
C001  78        SEI  A:00 X:00 Y:00 P:26 SP:C7
C002  AD 02 20  LDA  A:00 X:00 Y:00 P:26 SP:C7
READING OUT OF PPU MMIO RANGE!!!
C005  10 FB     BPL  A:00 X:00 Y:00 P:26 SP:C7
C102  B1 29     LDA  A:00 X:00 Y:00 P:26 SP:C7
C104  C0 D0     CPY  A:00 X:00 Y:00 P:26 SP:C7
C106  48        PHA  A:00 X:00 Y:00 P:24 SP:C7
C107  A5 B1     LDA  A:00 X:00 Y:00 P:24 SP:C6
C109  29 03     AND  A:00 X:00 Y:00 P:26 SP:C6
C10B  F0 51     BEQ  A:00 X:00 Y:00 P:26 SP:C6
C15E  4C 5B C3  JMP  A:00 X:00 Y:00 P:26 SP:C6
C35B  20 1F C4  JSR  A:00 X:00 Y:00 P:26 SP:C6
C41F  AD 29 03  LDA  A:00 X:00 Y:00 P:26 SP:C4
C422  85 1F     STA  A:00 X:00 Y:00 P:26 SP:C4
C424  A5 B9     LDA  A:00 X:00 Y:00 P:26 SP:C4
C426  4C 30 C4  JMP  A:00 X:00 Y:00 P:26 SP:C4
C430  38        SEC  A:00 X:00 Y:00 P:26 SP:C4
C431  E5 1F     SBC  A:00 X:00 Y:00 P:27 SP:C4
C433  10 07     BPL  A:00 X:00 Y:00 P:27 SP:C4
C43C  C9 05     CMP  A:00 X:00 Y:00 P:27 SP:C4
C43E  B0 03     BCS  A:00 X:00 Y:00 P:A4 SP:C4
C440  A0 02     LDY  A:00 X:00 Y:00 P:A4 SP:C4
C442  60        RTS  A:00 X:00 Y:02 P:24 SP:C4
C35E  A5 10     LDA  A:00 X:00 Y:02 P:24 SP:C6
C360  29 03     AND  A:00 X:00 Y:02 P:26 SP:C6
C362  88        DEY  A:00 X:00 Y:02 P:26 SP:C6
C363  F0 11     BEQ  A:00 X:00 Y:01 P:24 SP:C6
C365  C9 02     CMP  A:00 X:00 Y:01 P:24 SP:C6
C367  D0 11     BNE  A:00 X:00 Y:01 P:A4 SP:C6
C37A  4C A8 C3  JMP  A:00 X:00 Y:01 P:A4 SP:C6
C3A8  A0 00     LDY  A:00 X:00 Y:01 P:A4 SP:C6
C3AA  84 C1     STY  A:00 X:00 Y:00 P:26 SP:C6
C3AC  8C 31 03  STY  A:00 X:00 Y:00 P:26 SP:C6
C3AF  C8        INY  A:00 X:00 Y:00 P:26 SP:C6
C3B0  8C FF 05  STY  A:00 X:00 Y:01 P:24 SP:C6
C3B3  A4 BB     LDY  A:00 X:00 Y:01 P:24 SP:C6
C3B5  D0 02     BNE  A:00 X:00 Y:00 P:26 SP:C6
C3B7  85 BB     STA  A:00 X:00 Y:00 P:26 SP:C6
C3B9  AC 2B 03  LDY  A:00 X:00 Y:00 P:26 SP:C6
C3BC  D0 03     BNE  A:00 X:00 Y:00 P:26 SP:C6
C3BE  8D 2B 03  STA  A:00 X:00 Y:00 P:26 SP:C6
C3C1  60        RTS  A:00 X:00 Y:00 P:26 SP:C6
3601  00 A0     BRK  A:00 X:00 Y:00 P:26 SP:C8
C000  D8        CLD  A:00 X:00 Y:00 P:26 SP:C5
C001  78        SEI  A:00 X:00 Y:00 P:26 SP:C5
C002  AD 02 20  LDA  A:00 X:00 Y:00 P:26 SP:C5
READING OUT OF PPU MMIO RANGE!!!
C005  10 FB     BPL  A:00 X:00 Y:00 P:26 SP:C5
C102  B1 29     LDA  A:00 X:00 Y:00 P:26 SP:C5
C104  C0 D0     CPY  A:00 X:00 Y:00 P:26 SP:C5
C106  48        PHA  A:00 X:00 Y:00 P:24 SP:C5
C107  A5 B1     LDA  A:00 X:00 Y:00 P:24 SP:C4
C109  29 03     AND  A:00 X:00 Y:00 P:26 SP:C4
C10B  F0 51     BEQ  A:00 X:00 Y:00 P:26 SP:C4
C15E  4C 5B C3  JMP  A:00 X:00 Y:00 P:26 SP:C4
C35B  20 1F C4  JSR  A:00 X:00 Y:00 P:26 SP:C4
C41F  AD 29 03  LDA  A:00 X:00 Y:00 P:26 SP:C2
C422  85 1F     STA  A:00 X:00 Y:00 P:26 SP:C2
C424  A5 B9     LDA  A:00 X:00 Y:00 P:26 SP:C2
C426  4C 30 C4  JMP  A:00 X:00 Y:00 P:26 SP:C2
C430  38        SEC  A:00 X:00 Y:00 P:26 SP:C2
C431  E5 1F     SBC  A:00 X:00 Y:00 P:27 SP:C2
C433  10 07     BPL  A:00 X:00 Y:00 P:27 SP:C2
C43C  C9 05     CMP  A:00 X:00 Y:00 P:27 SP:C2
C43E  B0 03     BCS  A:00 X:00 Y:00 P:A4 SP:C2
C440  A0 02     LDY  A:00 X:00 Y:00 P:A4 SP:C2
C442  60        RTS  A:00 X:00 Y:02 P:24 SP:C2
C35E  A5 10     LDA  A:00 X:00 Y:02 P:24 SP:C4
C360  29 03     AND  A:00 X:00 Y:02 P:26 SP:C4
C362  88        DEY  A:00 X:00 Y:02 P:26 SP:C4
C363  F0 11     BEQ  A:00 X:00 Y:01 P:24 SP:C4
C365  C9 02     CMP  A:00 X:00 Y:01 P:24 SP:C4
C367  D0 11     BNE  A:00 X:00 Y:01 P:A4 SP:C4
C37A  4C A8 C3  JMP  A:00 X:00 Y:01 P:A4 SP:C4
C3A8  A0 00     LDY  A:00 X:00 Y:01 P:A4 SP:C4
C3AA  84 C1     STY  A:00 X:00 Y:00 P:26 SP:C4
C3AC  8C 31 03  STY  A:00 X:00 Y:00 P:26 SP:C4
C3AF  C8        INY  A:00 X:00 Y:00 P:26 SP:C4
C3B0  8C FF 05  STY  A:00 X:00 Y:01 P:24 SP:C4
C3B3  A4 BB     LDY  A:00 X:00 Y:01 P:24 SP:C4
C3B5  D0 02     BNE  A:00 X:00 Y:00 P:26 SP:C4
C3B7  85 BB     STA  A:00 X:00 Y:00 P:26 SP:C4
C3B9  AC 2B 03  LDY  A:00 X:00 Y:00 P:26 SP:C4
C3BC  D0 03     BNE  A:00 X:00 Y:00 P:26 SP:C4
C3BE  8D 2B 03  STA  A:00 X:00 Y:00 P:26 SP:C4
C3C1  60        RTS  A:00 X:00 Y:00 P:26 SP:C4
3601  A0 A0     LDY  A:00 X:00 Y:00 P:26 SP:C6
3603  A0 AC     LDY  A:00 X:00 Y:A0 P:A4 SP:C6
3605  AC AC 00  LDY  A:00 X:00 Y:AC P:A4 SP:C6
3608  00 00     BRK  A:00 X:00 Y:00 P:26 SP:C6
C000  D8        CLD  A:00 X:00 Y:00 P:26 SP:C3
C001  78        SEI  A:00 X:00 Y:00 P:26 SP:C3
C002  AD 02 20  LDA  A:00 X:00 Y:00 P:26 SP:C3
READING OUT OF PPU MMIO RANGE!!!
C005  10 FB     BPL  A:00 X:00 Y:00 P:26 SP:C3
C102  B1 29     LDA  A:00 X:00 Y:00 P:26 SP:C3
C104  C0 D0     CPY  A:00 X:00 Y:00 P:26 SP:C3
C106  48        PHA  A:00 X:00 Y:00 P:24 SP:C3
C107  A5 B1     LDA  A:00 X:00 Y:00 P:24 SP:C2
C109  29 03     AND  A:00 X:00 Y:00 P:26 SP:C2
C10B  F0 51     BEQ  A:00 X:00 Y:00 P:26 SP:C2
C15E  4C 5B C3  JMP  A:00 X:00 Y:00 P:26 SP:C2
C35B  20 1F C4  JSR  A:00 X:00 Y:00 P:26 SP:C2
C41F  AD 29 03  LDA  A:00 X:00 Y:00 P:26 SP:C0
C422  85 1F     STA  A:00 X:00 Y:00 P:26 SP:C0
C424  A5 B9     LDA  A:00 X:00 Y:00 P:26 SP:C0
C426  4C 30 C4  JMP  A:00 X:00 Y:00 P:26 SP:C0
C430  38        SEC  A:00 X:00 Y:00 P:26 SP:C0
C431  E5 1F     SBC  A:00 X:00 Y:00 P:27 SP:C0
C433  10 07     BPL  A:00 X:00 Y:00 P:27 SP:C0
C43C  C9 05     CMP  A:00 X:00 Y:00 P:27 SP:C0
C43E  B0 03     BCS  A:00 X:00 Y:00 P:A4 SP:C0
C440  A0 02     LDY  A:00 X:00 Y:00 P:A4 SP:C0
C442  60        RTS  A:00 X:00 Y:02 P:24 SP:C0
C35E  A5 10     LDA  A:00 X:00 Y:02 P:24 SP:C2
C360  29 03     AND  A:00 X:00 Y:02 P:26 SP:C2
C362  88        DEY  A:00 X:00 Y:02 P:26 SP:C2
C363  F0 11     BEQ  A:00 X:00 Y:01 P:24 SP:C2
C365  C9 02     CMP  A:00 X:00 Y:01 P:24 SP:C2
C367  D0 11     BNE  A:00 X:00 Y:01 P:A4 SP:C2
C37A  4C A8 C3  JMP  A:00 X:00 Y:01 P:A4 SP:C2
C3A8  A0 00     LDY  A:00 X:00 Y:01 P:A4 SP:C2
C3AA  84 C1     STY  A:00 X:00 Y:00 P:26 SP:C2
C3AC  8C 31 03  STY  A:00 X:00 Y:00 P:26 SP:C2
C3AF  C8        INY  A:00 X:00 Y:00 P:26 SP:C2
C3B0  8C FF 05  STY  A:00 X:00 Y:01 P:24 SP:C2
C3B3  A4 BB     LDY  A:00 X:00 Y:01 P:24 SP:C2
C3B5  D0 02     BNE  A:00 X:00 Y:00 P:26 SP:C2
C3B7  85 BB     STA  A:00 X:00 Y:00 P:26 SP:C2
C3B9  AC 2B 03  LDY  A:00 X:00 Y:00 P:26 SP:C2
C3BC  D0 03     BNE  A:00 X:00 Y:00 P:26 SP:C2
C3BE  8D 2B 03  STA  A:00 X:00 Y:00 P:26 SP:C2
C3C1  60        RTS  A:00 X:00 Y:00 P:26 SP:C2
3601  00 A0     BRK  A:00 X:00 Y:00 P:26 SP:C4
C000  D8        CLD  A:00 X:00 Y:00 P:26 SP:C1
C001  78        SEI  A:00 X:00 Y:00 P:26 SP:C1
C002  AD 02 20  LDA  A:00 X:00 Y:00 P:26 SP:C1
READING OUT OF PPU MMIO RANGE!!!
C005  10 FB     BPL  A:00 X:00 Y:00 P:26 SP:C1
C102  B1 29     LDA  A:00 X:00 Y:00 P:26 SP:C1
C104  C0 D0     CPY  A:00 X:00 Y:00 P:26 SP:C1
C106  48        PHA  A:00 X:00 Y:00 P:24 SP:C1
C107  A5 B1     LDA  A:00 X:00 Y:00 P:24 SP:C0
C109  29 03     AND  A:00 X:00 Y:00 P:26 SP:C0
C10B  F0 51     BEQ  A:00 X:00 Y:00 P:26 SP:C0
C15E  4C 5B C3  JMP  A:00 X:00 Y:00 P:26 SP:C0
C35B  20 1F C4  JSR  A:00 X:00 Y:00 P:26 SP:C0
C41F  AD 29 03  LDA  A:00 X:00 Y:00 P:26 SP:BE
C422  85 1F     STA  A:00 X:00 Y:00 P:26 SP:BE
C424  A5 B9     LDA  A:00 X:00 Y:00 P:26 SP:BE
C426  4C 30 C4  JMP  A:00 X:00 Y:00 P:26 SP:BE
C430  38        SEC  A:00 X:00 Y:00 P:26 SP:BE
C431  E5 1F     SBC  A:00 X:00 Y:00 P:27 SP:BE
C433  10 07     BPL  A:00 X:00 Y:00 P:27 SP:BE
C43C  C9 05     CMP  A:00 X:00 Y:00 P:27 SP:BE
C43E  B0 03     BCS  A:00 X:00 Y:00 P:A4 SP:BE
C440  A0 02     LDY  A:00 X:00 Y:00 P:A4 SP:BE
C442  60        RTS  A:00 X:00 Y:02 P:24 SP:BE
C35E  A5 10     LDA  A:00 X:00 Y:02 P:24 SP:C0
C360  29 03     AND  A:00 X:00 Y:02 P:26 SP:C0
C362  88        DEY  A:00 X:00 Y:02 P:26 SP:C0
C363  F0 11     BEQ  A:00 X:00 Y:01 P:24 SP:C0
C365  C9 02     CMP  A:00 X:00 Y:01 P:24 SP:C0
C367  D0 11     BNE  A:00 X:00 Y:01 P:A4 SP:C0
C37A  4C A8 C3  JMP  A:00 X:00 Y:01 P:A4 SP:C0
C3A8  A0 00     LDY  A:00 X:00 Y:01 P:A4 SP:C0
C3AA  84 C1     STY  A:00 X:00 Y:00 P:26 SP:C0
C3AC  8C 31 03  STY  A:00 X:00 Y:00 P:26 SP:C0
C3AF  C8        INY  A:00 X:00 Y:00 P:26 SP:C0
C3B0  8C FF 05  STY  A:00 X:00 Y:01 P:24 SP:C0
C3B3  A4 BB     LDY  A:00 X:00 Y:01 P:24 SP:C0
C3B5  D0 02     BNE  A:00 X:00 Y:00 P:26 SP:C0
C3B7  85 BB     STA  A:00 X:00 Y:00 P:26 SP:C0
C3B9  AC 2B 03  LDY  A:00 X:00 Y:00 P:26 SP:C0
C3BC  D0 03     BNE  A:00 X:00 Y:00 P:26 SP:C0
C3BE  8D 2B 03  STA  A:00 X:00 Y:00 P:26 SP:C0
C3C1  60        RTS  A:00 X:00 Y:00 P:26 SP:C0
3601  A0 A0     LDY  A:00 X:00 Y:00 P:26 SP:C2
3603  A0 AC     LDY  A:00 X:00 Y:A0 P:A4 SP:C2
3605  AC AC 00  LDY  A:00 X:00 Y:AC P:A4 SP:C2
3608  00 00     BRK  A:00 X:00 Y:00 P:26 SP:C2
C000  D8        CLD  A:00 X:00 Y:00 P:26 SP:BF
C001  78        SEI  A:00 X:00 Y:00 P:26 SP:BF
C002  AD 02 20  LDA  A:00 X:00 Y:00 P:26 SP:BF
READING OUT OF PPU MMIO RANGE!!!
C005  10 FB     BPL  A:00 X:00 Y:00 P:26 SP:BF
C102  B1 29     LDA  A:00 X:00 Y:00 P:26 SP:BF
C104  C0 D0     CPY  A:00 X:00 Y:00 P:26 SP:BF
C106  48        PHA  A:00 X:00 Y:00 P:24 SP:BF
C107  A5 B1     LDA  A:00 X:00 Y:00 P:24 SP:BE
C109  29 03     AND  A:00 X:00 Y:00 P:26 SP:BE
C10B  F0 51     BEQ  A:00 X:00 Y:00 P:26 SP:BE
C15E  4C 5B C3  JMP  A:00 X:00 Y:00 P:26 SP:BE
C35B  20 1F C4  JSR  A:00 X:00 Y:00 P:26 SP:BE
C41F  AD 29 03  LDA  A:00 X:00 Y:00 P:26 SP:BC
C422  85 1F     STA  A:00 X:00 Y:00 P:26 SP:BC
C424  A5 B9     LDA  A:00 X:00 Y:00 P:26 SP:BC
C426  4C 30 C4  JMP  A:00 X:00 Y:00 P:26 SP:BC
C430  38        SEC  A:00 X:00 Y:00 P:26 SP:BC
C431  E5 1F     SBC  A:00 X:00 Y:00 P:27 SP:BC
C433  10 07     BPL  A:00 X:00 Y:00 P:27 SP:BC
C43C  C9 05     CMP  A:00 X:00 Y:00 P:27 SP:BC
C43E  B0 03     BCS  A:00 X:00 Y:00 P:A4 SP:BC
C440  A0 02     LDY  A:00 X:00 Y:00 P:A4 SP:BC
C442  60        RTS  A:00 X:00 Y:02 P:24 SP:BC
C35E  A5 10     LDA  A:00 X:00 Y:02 P:24 SP:BE
C360  29 03     AND  A:00 X:00 Y:02 P:26 SP:BE
C362  88        DEY  A:00 X:00 Y:02 P:26 SP:BE
C363  F0 11     BEQ  A:00 X:00 Y:01 P:24 SP:BE
C365  C9 02     CMP  A:00 X:00 Y:01 P:24 SP:BE
C367  D0 11     BNE  A:00 X:00 Y:01 P:A4 SP:BE
C37A  4C A8 C3  JMP  A:00 X:00 Y:01 P:A4 SP:BE
C3A8  A0 00     LDY  A:00 X:00 Y:01 P:A4 SP:BE
C3AA  84 C1     STY  A:00 X:00 Y:00 P:26 SP:BE
C3AC  8C 31 03  STY  A:00 X:00 Y:00 P:26 SP:BE
C3AF  C8        INY  A:00 X:00 Y:00 P:26 SP:BE
C3B0  8C FF 05  STY  A:00 X:00 Y:01 P:24 SP:BE
C3B3  A4 BB     LDY  A:00 X:00 Y:01 P:24 SP:BE
C3B5  D0 02     BNE  A:00 X:00 Y:00 P:26 SP:BE
C3B7  85 BB     STA  A:00 X:00 Y:00 P:26 SP:BE
C3B9  AC 2B 03  LDY  A:00 X:00 Y:00 P:26 SP:BE
C3BC  D0 03     BNE  A:00 X:00 Y:00 P:26 SP:BE
C3BE  8D 2B 03  STA  A:00 X:00 Y:00 P:26 SP:BE
C3C1  60        RTS  A:00 X:00 Y:00 P:26 SP:BE
3601  00 A0     BRK  A:00 X:00 Y:00 P:26 SP:C0
C000  D8        CLD  A:00 X:00 Y:00 P:26 SP:BD
C001  78        SEI  A:00 X:00 Y:00 P:26 SP:BD
C002  AD 02 20  LDA  A:00 X:00 Y:00 P:26 SP:BD
READING OUT OF PPU MMIO RANGE!!!
C005  10 FB     BPL  A:00 X:00 Y:00 P:26 SP:BD
C102  B1 29     LDA  A:00 X:00 Y:00 P:26 SP:BD
C104  C0 D0     CPY  A:00 X:00 Y:00 P:26 SP:BD
C106  48        PHA  A:00 X:00 Y:00 P:24 SP:BD
C107  A5 B1     LDA  A:00 X:00 Y:00 P:24 SP:BC
C109  29 03     AND  A:00 X:00 Y:00 P:26 SP:BC
C10B  F0 51     BEQ  A:00 X:00 Y:00 P:26 SP:BC
C15E  4C 5B C3  JMP  A:00 X:00 Y:00 P:26 SP:BC
C35B  20 1F C4  JSR  A:00 X:00 Y:00 P:26 SP:BC
C41F  AD 29 03  LDA  A:00 X:00 Y:00 P:26 SP:BA
C422  85 1F     STA  A:00 X:00 Y:00 P:26 SP:BA
C424  A5 B9     LDA  A:00 X:00 Y:00 P:26 SP:BA
C426  4C 30 C4  JMP  A:00 X:00 Y:00 P:26 SP:BA
C430  38        SEC  A:00 X:00 Y:00 P:26 SP:BA
C431  E5 1F     SBC  A:00 X:00 Y:00 P:27 SP:BA
C433  10 07     BPL  A:00 X:00 Y:00 P:27 SP:BA
C43C  C9 05     CMP  A:00 X:00 Y:00 P:27 SP:BA
C43E  B0 03     BCS  A:00 X:00 Y:00 P:A4 SP:BA
C440  A0 02     LDY  A:00 X:00 Y:00 P:A4 SP:BA
C442  60        RTS  A:00 X:00 Y:02 P:24 SP:BA
C35E  A5 10     LDA  A:00 X:00 Y:02 P:24 SP:BC
C360  29 03     AND  A:00 X:00 Y:02 P:26 SP:BC
C362  88        DEY  A:00 X:00 Y:02 P:26 SP:BC
C363  F0 11     BEQ  A:00 X:00 Y:01 P:24 SP:BC
C365  C9 02     CMP  A:00 X:00 Y:01 P:24 SP:BC
C367  D0 11     BNE  A:00 X:00 Y:01 P:A4 SP:BC
C37A  4C A8 C3  JMP  A:00 X:00 Y:01 P:A4 SP:BC
C3A8  A0 00     LDY  A:00 X:00 Y:01 P:A4 SP:BC
C3AA  84 C1     STY  A:00 X:00 Y:00 P:26 SP:BC
C3AC  8C 31 03  STY  A:00 X:00 Y:00 P:26 SP:BC
C3AF  C8        INY  A:00 X:00 Y:00 P:26 SP:BC
C3B0  8C FF 05  STY  A:00 X:00 Y:01 P:24 SP:BC
C3B3  A4 BB     LDY  A:00 X:00 Y:01 P:24 SP:BC
C3B5  D0 02     BNE  A:00 X:00 Y:00 P:26 SP:BC
C3B7  85 BB     STA  A:00 X:00 Y:00 P:26 SP:BC
C3B9  AC 2B 03  LDY  A:00 X:00 Y:00 P:26 SP:BC
C3BC  D0 03     BNE  A:00 X:00 Y:00 P:26 SP:BC
C3BE  8D 2B 03  STA  A:00 X:00 Y:00 P:26 SP:BC
C3C1  60        RTS  A:00 X:00 Y:00 P:26 SP:BC
3601  A0 A0     LDY  A:00 X:00 Y:00 P:26 SP:BE
3603  A0 AC     LDY  A:00 X:00 Y:A0 P:A4 SP:BE
3605  AC AC 00  LDY  A:00 X:00 Y:AC P:A4 SP:BE
3608  00 00     BRK  A:00 X:00 Y:00 P:26 SP:BE
C000  D8        CLD  A:00 X:00 Y:00 P:26 SP:BB
C001  78        SEI  A:00 X:00 Y:00 P:26 SP:BB
C002  AD 02 20  LDA  A:00 X:00 Y:00 P:26 SP:BB
READING OUT OF PPU MMIO RANGE!!!
C005  10 FB     BPL  A:00 X:00 Y:00 P:26 SP:BB
C102  B1 29     LDA  A:00 X:00 Y:00 P:26 SP:BB
C104  C0 D0     CPY  A:00 X:00 Y:00 P:26 SP:BB
C106  48        PHA  A:00 X:00 Y:00 P:24 SP:BB
C107  A5 B1     LDA  A:00 X:00 Y:00 P:24 SP:BA
C109  29 03     AND  A:00 X:00 Y:00 P:26 SP:BA
C10B  F0 51     BEQ  A:00 X:00 Y:00 P:26 SP:BA
C15E  4C 5B C3  JMP  A:00 X:00 Y:00 P:26 SP:BA
C35B  20 1F C4  JSR  A:00 X:00 Y:00 P:26 SP:BA
C41F  AD 29 03  LDA  A:00 X:00 Y:00 P:26 SP:B8
C422  85 1F     STA  A:00 X:00 Y:00 P:26 SP:B8
C424  A5 B9     LDA  A:00 X:00 Y:00 P:26 SP:B8
C426  4C 30 C4  JMP  A:00 X:00 Y:00 P:26 SP:B8
C430  38        SEC  A:00 X:00 Y:00 P:26 SP:B8
C431  E5 1F     SBC  A:00 X:00 Y:00 P:27 SP:B8
C433  10 07     BPL  A:00 X:00 Y:00 P:27 SP:B8
C43C  C9 05     CMP  A:00 X:00 Y:00 P:27 SP:B8
C43E  B0 03     BCS  A:00 X:00 Y:00 P:A4 SP:B8
C440  A0 02     LDY  A:00 X:00 Y:00 P:A4 SP:B8
C442  60        RTS  A:00 X:00 Y:02 P:24 SP:B8
C35E  A5 10     LDA  A:00 X:00 Y:02 P:24 SP:BA
C360  29 03     AND  A:00 X:00 Y:02 P:26 SP:BA
C362  88        DEY  A:00 X:00 Y:02 P:26 SP:BA
C363  F0 11     BEQ  A:00 X:00 Y:01 P:24 SP:BA
C365  C9 02     CMP  A:00 X:00 Y:01 P:24 SP:BA
C367  D0 11     BNE  A:00 X:00 Y:01 P:A4 SP:BA
C37A  4C A8 C3  JMP  A:00 X:00 Y:01 P:A4 SP:BA
C3A8  A0 00     LDY  A:00 X:00 Y:01 P:A4 SP:BA
C3AA  84 C1     STY  A:00 X:00 Y:00 P:26 SP:BA
C3AC  8C 31 03  STY  A:00 X:00 Y:00 P:26 SP:BA
C3AF  C8        INY  A:00 X:00 Y:00 P:26 SP:BA
C3B0  8C FF 05  STY  A:00 X:00 Y:01 P:24 SP:BA
C3B3  A4 BB     LDY  A:00 X:00 Y:01 P:24 SP:BA
C3B5  D0 02     BNE  A:00 X:00 Y:00 P:26 SP:BA
C3B7  85 BB     STA  A:00 X:00 Y:00 P:26 SP:BA
C3B9  AC 2B 03  LDY  A:00 X:00 Y:00 P:26 SP:BA
C3BC  D0 03     BNE  A:00 X:00 Y:00 P:26 SP:BA
C3BE  8D 2B 03  STA  A:00 X:00 Y:00 P:26 SP:BA
C3C1  60        RTS  A:00 X:00 Y:00 P:26 SP:BA
3601  00 A0     BRK  A:00 X:00 Y:00 P:26 SP:BC
C000  D8        CLD  A:00 X:00 Y:00 P:26 SP:B9
C001  78        SEI  A:00 X:00 Y:00 P:26 SP:B9
C002  AD 02 20  LDA  A:00 X:00 Y:00 P:26 SP:B9
READING OUT OF PPU MMIO RANGE!!!
C005  10 FB     BPL  A:00 X:00 Y:00 P:26 SP:B9
C102  B1 29     LDA  A:00 X:00 Y:00 P:26 SP:B9
C104  C0 D0     CPY  A:00 X:00 Y:00 P:26 SP:B9
C106  48        PHA  A:00 X:00 Y:00 P:24 SP:B9
C107  A5 B1     LDA  A:00 X:00 Y:00 P:24 SP:B8
C109  29 03     AND  A:00 X:00 Y:00 P:26 SP:B8
C10B  F0 51     BEQ  A:00 X:00 Y:00 P:26 SP:B8
C15E  4C 5B C3  JMP  A:00 X:00 Y:00 P:26 SP:B8
C35B  20 1F C4  JSR  A:00 X:00 Y:00 P:26 SP:B8
C41F  AD 29 03  LDA  A:00 X:00 Y:00 P:26 SP:B6
C422  85 1F     STA  A:00 X:00 Y:00 P:26 SP:B6
C424  A5 B9     LDA  A:00 X:00 Y:00 P:26 SP:B6
C426  4C 30 C4  JMP  A:00 X:00 Y:00 P:26 SP:B6
C430  38        SEC  A:00 X:00 Y:00 P:26 SP:B6
C431  E5 1F     SBC  A:00 X:00 Y:00 P:27 SP:B6
C433  10 07     BPL  A:00 X:00 Y:00 P:27 SP:B6
C43C  C9 05     CMP  A:00 X:00 Y:00 P:27 SP:B6
C43E  B0 03     BCS  A:00 X:00 Y:00 P:A4 SP:B6
C440  A0 02     LDY  A:00 X:00 Y:00 P:A4 SP:B6
C442  60        RTS  A:00 X:00 Y:02 P:24 SP:B6
C35E  A5 10     LDA  A:00 X:00 Y:02 P:24 SP:B8
C360  29 03     AND  A:00 X:00 Y:02 P:26 SP:B8
C362  88        DEY  A:00 X:00 Y:02 P:26 SP:B8
C363  F0 11     BEQ  A:00 X:00 Y:01 P:24 SP:B8
C365  C9 02     CMP  A:00 X:00 Y:01 P:24 SP:B8
C367  D0 11     BNE  A:00 X:00 Y:01 P:A4 SP:B8
C37A  4C A8 C3  JMP  A:00 X:00 Y:01 P:A4 SP:B8
C3A8  A0 00     LDY  A:00 X:00 Y:01 P:A4 SP:B8
C3AA  84 C1     STY  A:00 X:00 Y:00 P:26 SP:B8
C3AC  8C 31 03  STY  A:00 X:00 Y:00 P:26 SP:B8
C3AF  C8        INY  A:00 X:00 Y:00 P:26 SP:B8
C3B0  8C FF 05  STY  A:00 X:00 Y:01 P:24 SP:B8
C3B3  A4 BB     LDY  A:00 X:00 Y:01 P:24 SP:B8
C3B5  D0 02     BNE  A:00 X:00 Y:00 P:26 SP:B8
C3B7  85 BB     STA  A:00 X:00 Y:00 P:26 SP:B8
C3B9  AC 2B 03  LDY  A:00 X:00 Y:00 P:26 SP:B8
C3BC  D0 03     BNE  A:00 X:00 Y:00 P:26 SP:B8
C3BE  8D 2B 03  STA  A:00 X:00 Y:00 P:26 SP:B8
C3C1  60        RTS  A:00 X:00 Y:00 P:26 SP:B8
3601  A0 A0     LDY  A:00 X:00 Y:00 P:26 SP:BA
3603  A0 AC     LDY  A:00 X:00 Y:A0 P:A4 SP:BA
3605  AC AC 00  LDY  A:00 X:00 Y:AC P:A4 SP:BA
3608  00 00     BRK  A:00 X:00 Y:00 P:26 SP:BA
C000  D8        CLD  A:00 X:00 Y:00 P:26 SP:B7
C001  78        SEI  A:00 X:00 Y:00 P:26 SP:B7
C002  AD 02 20  LDA  A:00 X:00 Y:00 P:26 SP:B7
READING OUT OF PPU MMIO RANGE!!!
C005  10 FB     BPL  A:00 X:00 Y:00 P:26 SP:B7
C102  B1 29     LDA  A:00 X:00 Y:00 P:26 SP:B7
C104  C0 D0     CPY  A:00 X:00 Y:00 P:26 SP:B7
C106  48        PHA  A:00 X:00 Y:00 P:24 SP:B7
C107  A5 B1     LDA  A:00 X:00 Y:00 P:24 SP:B6
C109  29 03     AND  A:00 X:00 Y:00 P:26 SP:B6
C10B  F0 51     BEQ  A:00 X:00 Y:00 P:26 SP:B6
C15E  4C 5B C3  JMP  A:00 X:00 Y:00 P:26 SP:B6
C35B  20 1F C4  JSR  A:00 X:00 Y:00 P:26 SP:B6
C41F  AD 29 03  LDA  A:00 X:00 Y:00 P:26 SP:B4
C422  85 1F     STA  A:00 X:00 Y:00 P:26 SP:B4
C424  A5 B9     LDA  A:00 X:00 Y:00 P:26 SP:B4
C426  4C 30 C4  JMP  A:00 X:00 Y:00 P:26 SP:B4
C430  38        SEC  A:00 X:00 Y:00 P:26 SP:B4
C431  E5 1F     SBC  A:00 X:00 Y:00 P:27 SP:B4
C433  10 07     BPL  A:00 X:00 Y:00 P:27 SP:B4
C43C  C9 05     CMP  A:00 X:00 Y:00 P:27 SP:B4
C43E  B0 03     BCS  A:00 X:00 Y:00 P:A4 SP:B4
C440  A0 02     LDY  A:00 X:00 Y:00 P:A4 SP:B4
C442  60        RTS  A:00 X:00 Y:02 P:24 SP:B4
C35E  A5 10     LDA  A:00 X:00 Y:02 P:24 SP:B6
C360  29 03     AND  A:00 X:00 Y:02 P:26 SP:B6
C362  88        DEY  A:00 X:00 Y:02 P:26 SP:B6
C363  F0 11     BEQ  A:00 X:00 Y:01 P:24 SP:B6
C365  C9 02     CMP  A:00 X:00 Y:01 P:24 SP:B6
C367  D0 11     BNE  A:00 X:00 Y:01 P:A4 SP:B6
C37A  4C A8 C3  JMP  A:00 X:00 Y:01 P:A4 SP:B6
C3A8  A0 00     LDY  A:00 X:00 Y:01 P:A4 SP:B6
C3AA  84 C1     STY  A:00 X:00 Y:00 P:26 SP:B6
C3AC  8C 31 03  STY  A:00 X:00 Y:00 P:26 SP:B6
C3AF  C8        INY  A:00 X:00 Y:00 P:26 SP:B6
C3B0  8C FF 05  STY  A:00 X:00 Y:01 P:24 SP:B6
C3B3  A4 BB     LDY  A:00 X:00 Y:01 P:24 SP:B6
C3B5  D0 02     BNE  A:00 X:00 Y:00 P:26 SP:B6
C3B7  85 BB     STA  A:00 X:00 Y:00 P:26 SP:B6
C3B9  AC 2B 03  LDY  A:00 X:00 Y:00 P:26 SP:B6
C3BC  D0 03     BNE  A:00 X:00 Y:00 P:26 SP:B6
C3BE  8D 2B 03  STA  A:00 X:00 Y:00 P:26 SP:B6
C3C1  60        RTS  A:00 X:00 Y:00 P:26 SP:B6
3601  00 A0     BRK  A:00 X:00 Y:00 P:26 SP:B8
C000  D8        CLD  A:00 X:00 Y:00 P:26 SP:B5
C001  78        SEI  A:00 X:00 Y:00 P:26 SP:B5
C002  AD 02 20  LDA  A:00 X:00 Y:00 P:26 SP:B5
READING OUT OF PPU MMIO RANGE!!!
C005  10 FB     BPL  A:00 X:00 Y:00 P:26 SP:B5
C102  B1 29     LDA  A:00 X:00 Y:00 P:26 SP:B5
C104  C0 D0     CPY  A:00 X:00 Y:00 P:26 SP:B5
C106  48        PHA  A:00 X:00 Y:00 P:24 SP:B5
C107  A5 B1     LDA  A:00 X:00 Y:00 P:24 SP:B4
C109  29 03     AND  A:00 X:00 Y:00 P:26 SP:B4
C10B  F0 51     BEQ  A:00 X:00 Y:00 P:26 SP:B4
C15E  4C 5B C3  JMP  A:00 X:00 Y:00 P:26 SP:B4
C35B  20 1F C4  JSR  A:00 X:00 Y:00 P:26 SP:B4
C41F  AD 29 03  LDA  A:00 X:00 Y:00 P:26 SP:B2
C422  85 1F     STA  A:00 X:00 Y:00 P:26 SP:B2
C424  A5 B9     LDA  A:00 X:00 Y:00 P:26 SP:B2
C426  4C 30 C4  JMP  A:00 X:00 Y:00 P:26 SP:B2
C430  38        SEC  A:00 X:00 Y:00 P:26 SP:B2
C431  E5 1F     SBC  A:00 X:00 Y:00 P:27 SP:B2
C433  10 07     BPL  A:00 X:00 Y:00 P:27 SP:B2
C43C  C9 05     CMP  A:00 X:00 Y:00 P:27 SP:B2
C43E  B0 03     BCS  A:00 X:00 Y:00 P:A4 SP:B2
C440  A0 02     LDY  A:00 X:00 Y:00 P:A4 SP:B2
C442  60        RTS  A:00 X:00 Y:02 P:24 SP:B2
C35E  A5 10     LDA  A:00 X:00 Y:02 P:24 SP:B4
C360  29 03     AND  A:00 X:00 Y:02 P:26 SP:B4
C362  88        DEY  A:00 X:00 Y:02 P:26 SP:B4
C363  F0 11     BEQ  A:00 X:00 Y:01 P:24 SP:B4
C365  C9 02     CMP  A:00 X:00 Y:01 P:24 SP:B4
C367  D0 11     BNE  A:00 X:00 Y:01 P:A4 SP:B4
C37A  4C A8 C3  JMP  A:00 X:00 Y:01 P:A4 SP:B4
C3A8  A0 00     LDY  A:00 X:00 Y:01 P:A4 SP:B4
C3AA  84 C1     STY  A:00 X:00 Y:00 P:26 SP:B4
C3AC  8C 31 03  STY  A:00 X:00 Y:00 P:26 SP:B4
C3AF  C8        INY  A:00 X:00 Y:00 P:26 SP:B4
C3B0  8C FF 05  STY  A:00 X:00 Y:01 P:24 SP:B4
C3B3  A4 BB     LDY  A:00 X:00 Y:01 P:24 SP:B4
C3B5  D0 02     BNE  A:00 X:00 Y:00 P:26 SP:B4
C3B7  85 BB     STA  A:00 X:00 Y:00 P:26 SP:B4
C3B9  AC 2B 03  LDY  A:00 X:00 Y:00 P:26 SP:B4
C3BC  D0 03     BNE  A:00 X:00 Y:00 P:26 SP:B4
C3BE  8D 2B 03  STA  A:00 X:00 Y:00 P:26 SP:B4
C3C1  60        RTS  A:00 X:00 Y:00 P:26 SP:B4
3601  A0 A0     LDY  A:00 X:00 Y:00 P:26 SP:B6
3603  A0 AC     LDY  A:00 X:00 Y:A0 P:A4 SP:B6
3605  AC AC 00  LDY  A:00 X:00 Y:AC P:A4 SP:B6
3608  00 00     BRK  A:00 X:00 Y:00 P:26 SP:B6
C000  D8        CLD  A:00 X:00 Y:00 P:26 SP:B3
C001  78        SEI  A:00 X:00 Y:00 P:26 SP:B3
C002  AD 02 20  LDA  A:00 X:00 Y:00 P:26 SP:B3
READING OUT OF PPU MMIO RANGE!!!
C005  10 FB     BPL  A:00 X:00 Y:00 P:26 SP:B3
C102  B1 29     LDA  A:00 X:00 Y:00 P:26 SP:B3
C104  C0 D0     CPY  A:00 X:00 Y:00 P:26 SP:B3
C106  48        PHA  A:00 X:00 Y:00 P:24 SP:B3
C107  A5 B1     LDA  A:00 X:00 Y:00 P:24 SP:B2
C109  29 03     AND  A:00 X:00 Y:00 P:26 SP:B2
C10B  F0 51     BEQ  A:00 X:00 Y:00 P:26 SP:B2
C15E  4C 5B C3  JMP  A:00 X:00 Y:00 P:26 SP:B2
C35B  20 1F C4  JSR  A:00 X:00 Y:00 P:26 SP:B2
C41F  AD 29 03  LDA  A:00 X:00 Y:00 P:26 SP:B0
C422  85 1F     STA  A:00 X:00 Y:00 P:26 SP:B0
C424  A5 B9     LDA  A:00 X:00 Y:00 P:26 SP:B0
C426  4C 30 C4  JMP  A:00 X:00 Y:00 P:26 SP:B0
C430  38        SEC  A:00 X:00 Y:00 P:26 SP:B0
C431  E5 1F     SBC  A:00 X:00 Y:00 P:27 SP:B0
C433  10 07     BPL  A:00 X:00 Y:00 P:27 SP:B0
C43C  C9 05     CMP  A:00 X:00 Y:00 P:27 SP:B0
C43E  B0 03     BCS  A:00 X:00 Y:00 P:A4 SP:B0
C440  A0 02     LDY  A:00 X:00 Y:00 P:A4 SP:B0
C442  60        RTS  A:00 X:00 Y:02 P:24 SP:B0
C35E  A5 10     LDA  A:00 X:00 Y:02 P:24 SP:B2
C360  29 03     AND  A:00 X:00 Y:02 P:26 SP:B2
C362  88        DEY  A:00 X:00 Y:02 P:26 SP:B2
C363  F0 11     BEQ  A:00 X:00 Y:01 P:24 SP:B2
C365  C9 02     CMP  A:00 X:00 Y:01 P:24 SP:B2
C367  D0 11     BNE  A:00 X:00 Y:01 P:A4 SP:B2
C37A  4C A8 C3  JMP  A:00 X:00 Y:01 P:A4 SP:B2
C3A8  A0 00     LDY  A:00 X:00 Y:01 P:A4 SP:B2
C3AA  84 C1     STY  A:00 X:00 Y:00 P:26 SP:B2
C3AC  8C 31 03  STY  A:00 X:00 Y:00 P:26 SP:B2
C3AF  C8        INY  A:00 X:00 Y:00 P:26 SP:B2
C3B0  8C FF 05  STY  A:00 X:00 Y:01 P:24 SP:B2
C3B3  A4 BB     LDY  A:00 X:00 Y:01 P:24 SP:B2
C3B5  D0 02     BNE  A:00 X:00 Y:00 P:26 SP:B2
C3B7  85 BB     STA  A:00 X:00 Y:00 P:26 SP:B2
C3B9  AC 2B 03  LDY  A:00 X:00 Y:00 P:26 SP:B2
C3BC  D0 03     BNE  A:00 X:00 Y:00 P:26 SP:B2
C3BE  8D 2B 03  STA  A:00 X:00 Y:00 P:26 SP:B2
C3C1  60        RTS  A:00 X:00 Y:00 P:26 SP:B2
3601  00 A0     BRK  A:00 X:00 Y:00 P:26 SP:B4
C000  D8        CLD  A:00 X:00 Y:00 P:26 SP:B1
C001  78        SEI  A:00 X:00 Y:00 P:26 SP:B1
C002  AD 02 20  LDA  A:00 X:00 Y:00 P:26 SP:B1
READING OUT OF PPU MMIO RANGE!!!
C005  10 FB     BPL  A:00 X:00 Y:00 P:26 SP:B1
C102  B1 29     LDA  A:00 X:00 Y:00 P:26 SP:B1
C104  C0 D0     CPY  A:00 X:00 Y:00 P:26 SP:B1
C106  48        PHA  A:00 X:00 Y:00 P:24 SP:B1
C107  A5 B1     LDA  A:00 X:00 Y:00 P:24 SP:B0
C109  29 03     AND  A:00 X:00 Y:00 P:26 SP:B0
C10B  F0 51     BEQ  A:00 X:00 Y:00 P:26 SP:B0
C15E  4C 5B C3  JMP  A:00 X:00 Y:00 P:26 SP:B0
C35B  20 1F C4  JSR  A:00 X:00 Y:00 P:26 SP:B0
C41F  AD 29 03  LDA  A:00 X:00 Y:00 P:26 SP:AE
C422  85 1F     STA  A:00 X:00 Y:00 P:26 SP:AE
C424  A5 B9     LDA  A:00 X:00 Y:00 P:26 SP:AE
C426  4C 30 C4  JMP  A:00 X:00 Y:00 P:26 SP:AE
C430  38        SEC  A:00 X:00 Y:00 P:26 SP:AE
C431  E5 1F     SBC  A:00 X:00 Y:00 P:27 SP:AE
C433  10 07     BPL  A:00 X:00 Y:00 P:27 SP:AE
C43C  C9 05     CMP  A:00 X:00 Y:00 P:27 SP:AE
C43E  B0 03     BCS  A:00 X:00 Y:00 P:A4 SP:AE
C440  A0 02     LDY  A:00 X:00 Y:00 P:A4 SP:AE
C442  60        RTS  A:00 X:00 Y:02 P:24 SP:AE
C35E  A5 10     LDA  A:00 X:00 Y:02 P:24 SP:B0
C360  29 03     AND  A:00 X:00 Y:02 P:26 SP:B0
C362  88        DEY  A:00 X:00 Y:02 P:26 SP:B0
C363  F0 11     BEQ  A:00 X:00 Y:01 P:24 SP:B0
C365  C9 02     CMP  A:00 X:00 Y:01 P:24 SP:B0
C367  D0 11     BNE  A:00 X:00 Y:01 P:A4 SP:B0
C37A  4C A8 C3  JMP  A:00 X:00 Y:01 P:A4 SP:B0
C3A8  A0 00     LDY  A:00 X:00 Y:01 P:A4 SP:B0
C3AA  84 C1     STY  A:00 X:00 Y:00 P:26 SP:B0
C3AC  8C 31 03  STY  A:00 X:00 Y:00 P:26 SP:B0
C3AF  C8        INY  A:00 X:00 Y:00 P:26 SP:B0
C3B0  8C FF 05  STY  A:00 X:00 Y:01 P:24 SP:B0
C3B3  A4 BB     LDY  A:00 X:00 Y:01 P:24 SP:B0
C3B5  D0 02     BNE  A:00 X:00 Y:00 P:26 SP:B0
C3B7  85 BB     STA  A:00 X:00 Y:00 P:26 SP:B0
C3B9  AC 2B 03  LDY  A:00 X:00 Y:00 P:26 SP:B0
C3BC  D0 03     BNE  A:00 X:00 Y:00 P:26 SP:B0
C3BE  8D 2B 03  STA  A:00 X:00 Y:00 P:26 SP:B0
C3C1  60        RTS  A:00 X:00 Y:00 P:26 SP:B0
3601  A0 A0     LDY  A:00 X:00 Y:00 P:26 SP:B2
3603  A0 AC     LDY  A:00 X:00 Y:A0 P:A4 SP:B2
3605  AC AC 00  LDY  A:00 X:00 Y:AC P:A4 SP:B2
3608  00 00     BRK  A:00 X:00 Y:00 P:26 SP:B2
C000  D8        CLD  A:00 X:00 Y:00 P:26 SP:AF
C001  78        SEI  A:00 X:00 Y:00 P:26 SP:AF
C002  AD 02 20  LDA  A:00 X:00 Y:00 P:26 SP:AF
READING OUT OF PPU MMIO RANGE!!!
C005  10 FB     BPL  A:00 X:00 Y:00 P:26 SP:AF
C102  B1 29     LDA  A:00 X:00 Y:00 P:26 SP:AF
C104  C0 D0     CPY  A:00 X:00 Y:00 P:26 SP:AF
C106  48        PHA  A:00 X:00 Y:00 P:24 SP:AF
C107  A5 B1     LDA  A:00 X:00 Y:00 P:24 SP:AE
C109  29 03     AND  A:00 X:00 Y:00 P:26 SP:AE
C10B  F0 51     BEQ  A:00 X:00 Y:00 P:26 SP:AE
C15E  4C 5B C3  JMP  A:00 X:00 Y:00 P:26 SP:AE
C35B  20 1F C4  JSR  A:00 X:00 Y:00 P:26 SP:AE
C41F  AD 29 03  LDA  A:00 X:00 Y:00 P:26 SP:AC
C422  85 1F     STA  A:00 X:00 Y:00 P:26 SP:AC
C424  A5 B9     LDA  A:00 X:00 Y:00 P:26 SP:AC
C426  4C 30 C4  JMP  A:00 X:00 Y:00 P:26 SP:AC
C430  38        SEC  A:00 X:00 Y:00 P:26 SP:AC
C431  E5 1F     SBC  A:00 X:00 Y:00 P:27 SP:AC
C433  10 07     BPL  A:00 X:00 Y:00 P:27 SP:AC
C43C  C9 05     CMP  A:00 X:00 Y:00 P:27 SP:AC
C43E  B0 03     BCS  A:00 X:00 Y:00 P:A4 SP:AC
C440  A0 02     LDY  A:00 X:00 Y:00 P:A4 SP:AC
C442  60        RTS  A:00 X:00 Y:02 P:24 SP:AC
C35E  A5 10     LDA  A:00 X:00 Y:02 P:24 SP:AE
C360  29 03     AND  A:00 X:00 Y:02 P:26 SP:AE
C362  88        DEY  A:00 X:00 Y:02 P:26 SP:AE
C363  F0 11     BEQ  A:00 X:00 Y:01 P:24 SP:AE
C365  C9 02     CMP  A:00 X:00 Y:01 P:24 SP:AE
C367  D0 11     BNE  A:00 X:00 Y:01 P:A4 SP:AE
C37A  4C A8 C3  JMP  A:00 X:00 Y:01 P:A4 SP:AE
C3A8  A0 00     LDY  A:00 X:00 Y:01 P:A4 SP:AE
C3AA  84 C1     STY  A:00 X:00 Y:00 P:26 SP:AE
C3AC  8C 31 03  STY  A:00 X:00 Y:00 P:26 SP:AE
C3AF  C8        INY  A:00 X:00 Y:00 P:26 SP:AE
C3B0  8C FF 05  STY  A:00 X:00 Y:01 P:24 SP:AE
C3B3  A4 BB     LDY  A:00 X:00 Y:01 P:24 SP:AE
C3B5  D0 02     BNE  A:00 X:00 Y:00 P:26 SP:AE
C3B7  85 BB     STA  A:00 X:00 Y:00 P:26 SP:AE
C3B9  AC 2B 03  LDY  A:00 X:00 Y:00 P:26 SP:AE
C3BC  D0 03     BNE  A:00 X:00 Y:00 P:26 SP:AE
C3BE  8D 2B 03  STA  A:00 X:00 Y:00 P:26 SP:AE
C3C1  60        RTS  A:00 X:00 Y:00 P:26 SP:AE
3601  00 A0     BRK  A:00 X:00 Y:00 P:26 SP:B0
C000  D8        CLD  A:00 X:00 Y:00 P:26 SP:AD
C001  78        SEI  A:00 X:00 Y:00 P:26 SP:AD
C002  AD 02 20  LDA  A:00 X:00 Y:00 P:26 SP:AD
READING OUT OF PPU MMIO RANGE!!!
C005  10 FB     BPL  A:00 X:00 Y:00 P:26 SP:AD
C102  B1 29     LDA  A:00 X:00 Y:00 P:26 SP:AD
C104  C0 D0     CPY  A:00 X:00 Y:00 P:26 SP:AD
C106  48        PHA  A:00 X:00 Y:00 P:24 SP:AD
C107  A5 B1     LDA  A:00 X:00 Y:00 P:24 SP:AC
C109  29 03     AND  A:00 X:00 Y:00 P:26 SP:AC
C10B  F0 51     BEQ  A:00 X:00 Y:00 P:26 SP:AC
C15E  4C 5B C3  JMP  A:00 X:00 Y:00 P:26 SP:AC
C35B  20 1F C4  JSR  A:00 X:00 Y:00 P:26 SP:AC
C41F  AD 29 03  LDA  A:00 X:00 Y:00 P:26 SP:AA
C422  85 1F     STA  A:00 X:00 Y:00 P:26 SP:AA
C424  A5 B9     LDA  A:00 X:00 Y:00 P:26 SP:AA
C426  4C 30 C4  JMP  A:00 X:00 Y:00 P:26 SP:AA
C430  38        SEC  A:00 X:00 Y:00 P:26 SP:AA
C431  E5 1F     SBC  A:00 X:00 Y:00 P:27 SP:AA
C433  10 07     BPL  A:00 X:00 Y:00 P:27 SP:AA
C43C  C9 05     CMP  A:00 X:00 Y:00 P:27 SP:AA
C43E  B0 03     BCS  A:00 X:00 Y:00 P:A4 SP:AA
C440  A0 02     LDY  A:00 X:00 Y:00 P:A4 SP:AA
C442  60        RTS  A:00 X:00 Y:02 P:24 SP:AA
C35E  A5 10     LDA  A:00 X:00 Y:02 P:24 SP:AC
C360  29 03     AND  A:00 X:00 Y:02 P:26 SP:AC
C362  88        DEY  A:00 X:00 Y:02 P:26 SP:AC
C363  F0 11     BEQ  A:00 X:00 Y:01 P:24 SP:AC
C365  C9 02     CMP  A:00 X:00 Y:01 P:24 SP:AC
C367  D0 11     BNE  A:00 X:00 Y:01 P:A4 SP:AC
C37A  4C A8 C3  JMP  A:00 X:00 Y:01 P:A4 SP:AC
C3A8  A0 00     LDY  A:00 X:00 Y:01 P:A4 SP:AC
C3AA  84 C1     STY  A:00 X:00 Y:00 P:26 SP:AC
C3AC  8C 31 03  STY  A:00 X:00 Y:00 P:26 SP:AC
C3AF  C8        INY  A:00 X:00 Y:00 P:26 SP:AC
C3B0  8C FF 05  STY  A:00 X:00 Y:01 P:24 SP:AC
C3B3  A4 BB     LDY  A:00 X:00 Y:01 P:24 SP:AC
C3B5  D0 02     BNE  A:00 X:00 Y:00 P:26 SP:AC
C3B7  85 BB     STA  A:00 X:00 Y:00 P:26 SP:AC
C3B9  AC 2B 03  LDY  A:00 X:00 Y:00 P:26 SP:AC
C3BC  D0 03     BNE  A:00 X:00 Y:00 P:26 SP:AC
C3BE  8D 2B 03  STA  A:00 X:00 Y:00 P:26 SP:AC
C3C1  60        RTS  A:00 X:00 Y:00 P:26 SP:AC
3601  A0 A0     LDY  A:00 X:00 Y:00 P:26 SP:AE
3603  A0 AC     LDY  A:00 X:00 Y:A0 P:A4 SP:AE
3605  AC AC 00  LDY  A:00 X:00 Y:AC P:A4 SP:AE
3608  00 00     BRK  A:00 X:00 Y:00 P:26 SP:AE
C000  D8        CLD  A:00 X:00 Y:00 P:26 SP:AB
C001  78        SEI  A:00 X:00 Y:00 P:26 SP:AB
C002  AD 02 20  LDA  A:00 X:00 Y:00 P:26 SP:AB
READING OUT OF PPU MMIO RANGE!!!
C005  10 FB     BPL  A:00 X:00 Y:00 P:26 SP:AB
C102  B1 29     LDA  A:00 X:00 Y:00 P:26 SP:AB
C104  C0 D0     CPY  A:00 X:00 Y:00 P:26 SP:AB
C106  48        PHA  A:00 X:00 Y:00 P:24 SP:AB
C107  A5 B1     LDA  A:00 X:00 Y:00 P:24 SP:AA
C109  29 03     AND  A:00 X:00 Y:00 P:26 SP:AA
C10B  F0 51     BEQ  A:00 X:00 Y:00 P:26 SP:AA
C15E  4C 5B C3  JMP  A:00 X:00 Y:00 P:26 SP:AA
C35B  20 1F C4  JSR  A:00 X:00 Y:00 P:26 SP:AA
C41F  AD 29 03  LDA  A:00 X:00 Y:00 P:26 SP:A8
C422  85 1F     STA  A:00 X:00 Y:00 P:26 SP:A8
C424  A5 B9     LDA  A:00 X:00 Y:00 P:26 SP:A8
C426  4C 30 C4  JMP  A:00 X:00 Y:00 P:26 SP:A8
C430  38        SEC  A:00 X:00 Y:00 P:26 SP:A8
C431  E5 1F     SBC  A:00 X:00 Y:00 P:27 SP:A8
C433  10 07     BPL  A:00 X:00 Y:00 P:27 SP:A8
C43C  C9 05     CMP  A:00 X:00 Y:00 P:27 SP:A8
C43E  B0 03     BCS  A:00 X:00 Y:00 P:A4 SP:A8
C440  A0 02     LDY  A:00 X:00 Y:00 P:A4 SP:A8
C442  60        RTS  A:00 X:00 Y:02 P:24 SP:A8
C35E  A5 10     LDA  A:00 X:00 Y:02 P:24 SP:AA
C360  29 03     AND  A:00 X:00 Y:02 P:26 SP:AA
C362  88        DEY  A:00 X:00 Y:02 P:26 SP:AA
C363  F0 11     BEQ  A:00 X:00 Y:01 P:24 SP:AA
C365  C9 02     CMP  A:00 X:00 Y:01 P:24 SP:AA
C367  D0 11     BNE  A:00 X:00 Y:01 P:A4 SP:AA
C37A  4C A8 C3  JMP  A:00 X:00 Y:01 P:A4 SP:AA
C3A8  A0 00     LDY  A:00 X:00 Y:01 P:A4 SP:AA
C3AA  84 C1     STY  A:00 X:00 Y:00 P:26 SP:AA
C3AC  8C 31 03  STY  A:00 X:00 Y:00 P:26 SP:AA
C3AF  C8        INY  A:00 X:00 Y:00 P:26 SP:AA
C3B0  8C FF 05  STY  A:00 X:00 Y:01 P:24 SP:AA
C3B3  A4 BB     LDY  A:00 X:00 Y:01 P:24 SP:AA
C3B5  D0 02     BNE  A:00 X:00 Y:00 P:26 SP:AA
C3B7  85 BB     STA  A:00 X:00 Y:00 P:26 SP:AA
C3B9  AC 2B 03  LDY  A:00 X:00 Y:00 P:26 SP:AA
C3BC  D0 03     BNE  A:00 X:00 Y:00 P:26 SP:AA
C3BE  8D 2B 03  STA  A:00 X:00 Y:00 P:26 SP:AA
C3C1  60        RTS  A:00 X:00 Y:00 P:26 SP:AA
3601  00 A0     BRK  A:00 X:00 Y:00 P:26 SP:AC
C000  D8        CLD  A:00 X:00 Y:00 P:26 SP:A9
C001  78        SEI  A:00 X:00 Y:00 P:26 SP:A9
C002  AD 02 20  LDA  A:00 X:00 Y:00 P:26 SP:A9
READING OUT OF PPU MMIO RANGE!!!
C005  10 FB     BPL  A:00 X:00 Y:00 P:26 SP:A9
C102  B1 29     LDA  A:00 X:00 Y:00 P:26 SP:A9
C104  C0 D0     CPY  A:00 X:00 Y:00 P:26 SP:A9
C106  48        PHA  A:00 X:00 Y:00 P:24 SP:A9
C107  A5 B1     LDA  A:00 X:00 Y:00 P:24 SP:A8
C109  29 03     AND  A:00 X:00 Y:00 P:26 SP:A8
C10B  F0 51     BEQ  A:00 X:00 Y:00 P:26 SP:A8
C15E  4C 5B C3  JMP  A:00 X:00 Y:00 P:26 SP:A8
C35B  20 1F C4  JSR  A:00 X:00 Y:00 P:26 SP:A8
C41F  AD 29 03  LDA  A:00 X:00 Y:00 P:26 SP:A6
C422  85 1F     STA  A:00 X:00 Y:00 P:26 SP:A6
C424  A5 B9     LDA  A:00 X:00 Y:00 P:26 SP:A6
C426  4C 30 C4  JMP  A:00 X:00 Y:00 P:26 SP:A6
C430  38        SEC  A:00 X:00 Y:00 P:26 SP:A6
C431  E5 1F     SBC  A:00 X:00 Y:00 P:27 SP:A6
C433  10 07     BPL  A:00 X:00 Y:00 P:27 SP:A6
C43C  C9 05     CMP  A:00 X:00 Y:00 P:27 SP:A6
C43E  B0 03     BCS  A:00 X:00 Y:00 P:A4 SP:A6
C440  A0 02     LDY  A:00 X:00 Y:00 P:A4 SP:A6
C442  60        RTS  A:00 X:00 Y:02 P:24 SP:A6
C35E  A5 10     LDA  A:00 X:00 Y:02 P:24 SP:A8
C360  29 03     AND  A:00 X:00 Y:02 P:26 SP:A8
C362  88        DEY  A:00 X:00 Y:02 P:26 SP:A8
C363  F0 11     BEQ  A:00 X:00 Y:01 P:24 SP:A8
C365  C9 02     CMP  A:00 X:00 Y:01 P:24 SP:A8
C367  D0 11     BNE  A:00 X:00 Y:01 P:A4 SP:A8
C37A  4C A8 C3  JMP  A:00 X:00 Y:01 P:A4 SP:A8
C3A8  A0 00     LDY  A:00 X:00 Y:01 P:A4 SP:A8
C3AA  84 C1     STY  A:00 X:00 Y:00 P:26 SP:A8
C3AC  8C 31 03  STY  A:00 X:00 Y:00 P:26 SP:A8
C3AF  C8        INY  A:00 X:00 Y:00 P:26 SP:A8
C3B0  8C FF 05  STY  A:00 X:00 Y:01 P:24 SP:A8
C3B3  A4 BB     LDY  A:00 X:00 Y:01 P:24 SP:A8
C3B5  D0 02     BNE  A:00 X:00 Y:00 P:26 SP:A8
C3B7  85 BB     STA  A:00 X:00 Y:00 P:26 SP:A8
C3B9  AC 2B 03  LDY  A:00 X:00 Y:00 P:26 SP:A8
C3BC  D0 03     BNE  A:00 X:00 Y:00 P:26 SP:A8
C3BE  8D 2B 03  STA  A:00 X:00 Y:00 P:26 SP:A8
C3C1  60        RTS  A:00 X:00 Y:00 P:26 SP:A8
3601  A0 A0     LDY  A:00 X:00 Y:00 P:26 SP:AA
3603  A0 AC     LDY  A:00 X:00 Y:A0 P:A4 SP:AA
3605  AC AC 00  LDY  A:00 X:00 Y:AC P:A4 SP:AA
3608  00 00     BRK  A:00 X:00 Y:00 P:26 SP:AA
C000  D8        CLD  A:00 X:00 Y:00 P:26 SP:A7
C001  78        SEI  A:00 X:00 Y:00 P:26 SP:A7
C002  AD 02 20  LDA  A:00 X:00 Y:00 P:26 SP:A7
READING OUT OF PPU MMIO RANGE!!!
C005  10 FB     BPL  A:00 X:00 Y:00 P:26 SP:A7
C102  B1 29     LDA  A:00 X:00 Y:00 P:26 SP:A7
C104  C0 D0     CPY  A:00 X:00 Y:00 P:26 SP:A7
C106  48        PHA  A:00 X:00 Y:00 P:24 SP:A7
C107  A5 B1     LDA  A:00 X:00 Y:00 P:24 SP:A6
C109  29 03     AND  A:00 X:00 Y:00 P:26 SP:A6
C10B  F0 51     BEQ  A:00 X:00 Y:00 P:26 SP:A6
C15E  4C 5B C3  JMP  A:00 X:00 Y:00 P:26 SP:A6
C35B  20 1F C4  JSR  A:00 X:00 Y:00 P:26 SP:A6
C41F  AD 29 03  LDA  A:00 X:00 Y:00 P:26 SP:A4
C422  85 1F     STA  A:00 X:00 Y:00 P:26 SP:A4
C424  A5 B9     LDA  A:00 X:00 Y:00 P:26 SP:A4
C426  4C 30 C4  JMP  A:00 X:00 Y:00 P:26 SP:A4
C430  38        SEC  A:00 X:00 Y:00 P:26 SP:A4
C431  E5 1F     SBC  A:00 X:00 Y:00 P:27 SP:A4
C433  10 07     BPL  A:00 X:00 Y:00 P:27 SP:A4
C43C  C9 05     CMP  A:00 X:00 Y:00 P:27 SP:A4
C43E  B0 03     BCS  A:00 X:00 Y:00 P:A4 SP:A4
C440  A0 02     LDY  A:00 X:00 Y:00 P:A4 SP:A4
C442  60        RTS  A:00 X:00 Y:02 P:24 SP:A4
C35E  A5 10     LDA  A:00 X:00 Y:02 P:24 SP:A6
C360  29 03     AND  A:00 X:00 Y:02 P:26 SP:A6
C362  88        DEY  A:00 X:00 Y:02 P:26 SP:A6
C363  F0 11     BEQ  A:00 X:00 Y:01 P:24 SP:A6
C365  C9 02     CMP  A:00 X:00 Y:01 P:24 SP:A6
C367  D0 11     BNE  A:00 X:00 Y:01 P:A4 SP:A6
C37A  4C A8 C3  JMP  A:00 X:00 Y:01 P:A4 SP:A6
C3A8  A0 00     LDY  A:00 X:00 Y:01 P:A4 SP:A6
C3AA  84 C1     STY  A:00 X:00 Y:00 P:26 SP:A6
C3AC  8C 31 03  STY  A:00 X:00 Y:00 P:26 SP:A6
C3AF  C8        INY  A:00 X:00 Y:00 P:26 SP:A6
C3B0  8C FF 05  STY  A:00 X:00 Y:01 P:24 SP:A6
C3B3  A4 BB     LDY  A:00 X:00 Y:01 P:24 SP:A6
C3B5  D0 02     BNE  A:00 X:00 Y:00 P:26 SP:A6
C3B7  85 BB     STA  A:00 X:00 Y:00 P:26 SP:A6
C3B9  AC 2B 03  LDY  A:00 X:00 Y:00 P:26 SP:A6
C3BC  D0 03     BNE  A:00 X:00 Y:00 P:26 SP:A6
C3BE  8D 2B 03  STA  A:00 X:00 Y:00 P:26 SP:A6
C3C1  60        RTS  A:00 X:00 Y:00 P:26 SP:A6
3601  00 A0     BRK  A:00 X:00 Y:00 P:26 SP:A8
C000  D8        CLD  A:00 X:00 Y:00 P:26 SP:A5
C001  78        SEI  A:00 X:00 Y:00 P:26 SP:A5
C002  AD 02 20  LDA  A:00 X:00 Y:00 P:26 SP:A5
READING OUT OF PPU MMIO RANGE!!!
C005  10 FB     BPL  A:00 X:00 Y:00 P:26 SP:A5
C102  B1 29     LDA  A:00 X:00 Y:00 P:26 SP:A5
C104  C0 D0     CPY  A:00 X:00 Y:00 P:26 SP:A5
C106  48        PHA  A:00 X:00 Y:00 P:24 SP:A5
C107  A5 B1     LDA  A:00 X:00 Y:00 P:24 SP:A4
C109  29 03     AND  A:00 X:00 Y:00 P:26 SP:A4
C10B  F0 51     BEQ  A:00 X:00 Y:00 P:26 SP:A4
C15E  4C 5B C3  JMP  A:00 X:00 Y:00 P:26 SP:A4
C35B  20 1F C4  JSR  A:00 X:00 Y:00 P:26 SP:A4
C41F  AD 29 03  LDA  A:00 X:00 Y:00 P:26 SP:A2
C422  85 1F     STA  A:00 X:00 Y:00 P:26 SP:A2
C424  A5 B9     LDA  A:00 X:00 Y:00 P:26 SP:A2
C426  4C 30 C4  JMP  A:00 X:00 Y:00 P:26 SP:A2
C430  38        SEC  A:00 X:00 Y:00 P:26 SP:A2
C431  E5 1F     SBC  A:00 X:00 Y:00 P:27 SP:A2
C433  10 07     BPL  A:00 X:00 Y:00 P:27 SP:A2
C43C  C9 05     CMP  A:00 X:00 Y:00 P:27 SP:A2
C43E  B0 03     BCS  A:00 X:00 Y:00 P:A4 SP:A2
C440  A0 02     LDY  A:00 X:00 Y:00 P:A4 SP:A2
C442  60        RTS  A:00 X:00 Y:02 P:24 SP:A2
C35E  A5 10     LDA  A:00 X:00 Y:02 P:24 SP:A4
C360  29 03     AND  A:00 X:00 Y:02 P:26 SP:A4
C362  88        DEY  A:00 X:00 Y:02 P:26 SP:A4
C363  F0 11     BEQ  A:00 X:00 Y:01 P:24 SP:A4
C365  C9 02     CMP  A:00 X:00 Y:01 P:24 SP:A4
C367  D0 11     BNE  A:00 X:00 Y:01 P:A4 SP:A4
C37A  4C A8 C3  JMP  A:00 X:00 Y:01 P:A4 SP:A4
C3A8  A0 00     LDY  A:00 X:00 Y:01 P:A4 SP:A4
C3AA  84 C1     STY  A:00 X:00 Y:00 P:26 SP:A4
C3AC  8C 31 03  STY  A:00 X:00 Y:00 P:26 SP:A4
C3AF  C8        INY  A:00 X:00 Y:00 P:26 SP:A4
C3B0  8C FF 05  STY  A:00 X:00 Y:01 P:24 SP:A4
C3B3  A4 BB     LDY  A:00 X:00 Y:01 P:24 SP:A4
C3B5  D0 02     BNE  A:00 X:00 Y:00 P:26 SP:A4
C3B7  85 BB     STA  A:00 X:00 Y:00 P:26 SP:A4
C3B9  AC 2B 03  LDY  A:00 X:00 Y:00 P:26 SP:A4
C3BC  D0 03     BNE  A:00 X:00 Y:00 P:26 SP:A4
C3BE  8D 2B 03  STA  A:00 X:00 Y:00 P:26 SP:A4
C3C1  60        RTS  A:00 X:00 Y:00 P:26 SP:A4
3601  A0 A0     LDY  A:00 X:00 Y:00 P:26 SP:A6
3603  A0 AC     LDY  A:00 X:00 Y:A0 P:A4 SP:A6
3605  AC AC 00  LDY  A:00 X:00 Y:AC P:A4 SP:A6
3608  00 00     BRK  A:00 X:00 Y:00 P:26 SP:A6
C000  D8        CLD  A:00 X:00 Y:00 P:26 SP:A3
C001  78        SEI  A:00 X:00 Y:00 P:26 SP:A3
C002  AD 02 20  LDA  A:00 X:00 Y:00 P:26 SP:A3
READING OUT OF PPU MMIO RANGE!!!
C005  10 FB     BPL  A:00 X:00 Y:00 P:26 SP:A3
C102  B1 29     LDA  A:00 X:00 Y:00 P:26 SP:A3
C104  C0 D0     CPY  A:00 X:00 Y:00 P:26 SP:A3
C106  48        PHA  A:00 X:00 Y:00 P:24 SP:A3
C107  A5 B1     LDA  A:00 X:00 Y:00 P:24 SP:A2
C109  29 03     AND  A:00 X:00 Y:00 P:26 SP:A2
C10B  F0 51     BEQ  A:00 X:00 Y:00 P:26 SP:A2
C15E  4C 5B C3  JMP  A:00 X:00 Y:00 P:26 SP:A2
C35B  20 1F C4  JSR  A:00 X:00 Y:00 P:26 SP:A2
C41F  AD 29 03  LDA  A:00 X:00 Y:00 P:26 SP:A0
C422  85 1F     STA  A:00 X:00 Y:00 P:26 SP:A0
C424  A5 B9     LDA  A:00 X:00 Y:00 P:26 SP:A0
C426  4C 30 C4  JMP  A:00 X:00 Y:00 P:26 SP:A0
C430  38        SEC  A:00 X:00 Y:00 P:26 SP:A0
C431  E5 1F     SBC  A:00 X:00 Y:00 P:27 SP:A0
C433  10 07     BPL  A:00 X:00 Y:00 P:27 SP:A0
C43C  C9 05     CMP  A:00 X:00 Y:00 P:27 SP:A0
C43E  B0 03     BCS  A:00 X:00 Y:00 P:A4 SP:A0
C440  A0 02     LDY  A:00 X:00 Y:00 P:A4 SP:A0
C442  60        RTS  A:00 X:00 Y:02 P:24 SP:A0
C35E  A5 10     LDA  A:00 X:00 Y:02 P:24 SP:A2
C360  29 03     AND  A:00 X:00 Y:02 P:26 SP:A2
C362  88        DEY  A:00 X:00 Y:02 P:26 SP:A2
C363  F0 11     BEQ  A:00 X:00 Y:01 P:24 SP:A2
C365  C9 02     CMP  A:00 X:00 Y:01 P:24 SP:A2
C367  D0 11     BNE  A:00 X:00 Y:01 P:A4 SP:A2
C37A  4C A8 C3  JMP  A:00 X:00 Y:01 P:A4 SP:A2
C3A8  A0 00     LDY  A:00 X:00 Y:01 P:A4 SP:A2
C3AA  84 C1     STY  A:00 X:00 Y:00 P:26 SP:A2
C3AC  8C 31 03  STY  A:00 X:00 Y:00 P:26 SP:A2
C3AF  C8        INY  A:00 X:00 Y:00 P:26 SP:A2
C3B0  8C FF 05  STY  A:00 X:00 Y:01 P:24 SP:A2
C3B3  A4 BB     LDY  A:00 X:00 Y:01 P:24 SP:A2
C3B5  D0 02     BNE  A:00 X:00 Y:00 P:26 SP:A2
C3B7  85 BB     STA  A:00 X:00 Y:00 P:26 SP:A2
C3B9  AC 2B 03  LDY  A:00 X:00 Y:00 P:26 SP:A2
C3BC  D0 03     BNE  A:00 X:00 Y:00 P:26 SP:A2
C3BE  8D 2B 03  STA  A:00 X:00 Y:00 P:26 SP:A2
C3C1  60        RTS  A:00 X:00 Y:00 P:26 SP:A2
3601  00 A0     BRK  A:00 X:00 Y:00 P:26 SP:A4
C000  D8        CLD  A:00 X:00 Y:00 P:26 SP:A1
C001  78        SEI  A:00 X:00 Y:00 P:26 SP:A1
C002  AD 02 20  LDA  A:00 X:00 Y:00 P:26 SP:A1
READING OUT OF PPU MMIO RANGE!!!
C005  10 FB     BPL  A:00 X:00 Y:00 P:26 SP:A1
C102  B1 29     LDA  A:00 X:00 Y:00 P:26 SP:A1
C104  C0 D0     CPY  A:00 X:00 Y:00 P:26 SP:A1
C106  48        PHA  A:00 X:00 Y:00 P:24 SP:A1
C107  A5 B1     LDA  A:00 X:00 Y:00 P:24 SP:A0
C109  29 03     AND  A:00 X:00 Y:00 P:26 SP:A0
C10B  F0 51     BEQ  A:00 X:00 Y:00 P:26 SP:A0
C15E  4C 5B C3  JMP  A:00 X:00 Y:00 P:26 SP:A0
C35B  20 1F C4  JSR  A:00 X:00 Y:00 P:26 SP:A0
C41F  AD 29 03  LDA  A:00 X:00 Y:00 P:26 SP:9E
C422  85 1F     STA  A:00 X:00 Y:00 P:26 SP:9E
C424  A5 B9     LDA  A:00 X:00 Y:00 P:26 SP:9E
C426  4C 30 C4  JMP  A:00 X:00 Y:00 P:26 SP:9E
C430  38        SEC  A:00 X:00 Y:00 P:26 SP:9E
C431  E5 1F     SBC  A:00 X:00 Y:00 P:27 SP:9E
C433  10 07     BPL  A:00 X:00 Y:00 P:27 SP:9E
C43C  C9 05     CMP  A:00 X:00 Y:00 P:27 SP:9E
C43E  B0 03     BCS  A:00 X:00 Y:00 P:A4 SP:9E
C440  A0 02     LDY  A:00 X:00 Y:00 P:A4 SP:9E
C442  60        RTS  A:00 X:00 Y:02 P:24 SP:9E
C35E  A5 10     LDA  A:00 X:00 Y:02 P:24 SP:A0
C360  29 03     AND  A:00 X:00 Y:02 P:26 SP:A0
C362  88        DEY  A:00 X:00 Y:02 P:26 SP:A0
C363  F0 11     BEQ  A:00 X:00 Y:01 P:24 SP:A0
C365  C9 02     CMP  A:00 X:00 Y:01 P:24 SP:A0
C367  D0 11     BNE  A:00 X:00 Y:01 P:A4 SP:A0
C37A  4C A8 C3  JMP  A:00 X:00 Y:01 P:A4 SP:A0
C3A8  A0 00     LDY  A:00 X:00 Y:01 P:A4 SP:A0
C3AA  84 C1     STY  A:00 X:00 Y:00 P:26 SP:A0
C3AC  8C 31 03  STY  A:00 X:00 Y:00 P:26 SP:A0
C3AF  C8        INY  A:00 X:00 Y:00 P:26 SP:A0
C3B0  8C FF 05  STY  A:00 X:00 Y:01 P:24 SP:A0
C3B3  A4 BB     LDY  A:00 X:00 Y:01 P:24 SP:A0
C3B5  D0 02     BNE  A:00 X:00 Y:00 P:26 SP:A0
C3B7  85 BB     STA  A:00 X:00 Y:00 P:26 SP:A0
C3B9  AC 2B 03  LDY  A:00 X:00 Y:00 P:26 SP:A0
C3BC  D0 03     BNE  A:00 X:00 Y:00 P:26 SP:A0
C3BE  8D 2B 03  STA  A:00 X:00 Y:00 P:26 SP:A0
C3C1  60        RTS  A:00 X:00 Y:00 P:26 SP:A0
3601  A0 A0     LDY  A:00 X:00 Y:00 P:26 SP:A2
3603  A0 AC     LDY  A:00 X:00 Y:A0 P:A4 SP:A2
3605  AC AC 00  LDY  A:00 X:00 Y:AC P:A4 SP:A2
3608  00 00     BRK  A:00 X:00 Y:00 P:26 SP:A2
C000  D8        CLD  A:00 X:00 Y:00 P:26 SP:9F
C001  78        SEI  A:00 X:00 Y:00 P:26 SP:9F
C002  AD 02 20  LDA  A:00 X:00 Y:00 P:26 SP:9F
READING OUT OF PPU MMIO RANGE!!!
C005  10 FB     BPL  A:00 X:00 Y:00 P:26 SP:9F
C102  B1 29     LDA  A:00 X:00 Y:00 P:26 SP:9F
C104  C0 D0     CPY  A:00 X:00 Y:00 P:26 SP:9F
C106  48        PHA  A:00 X:00 Y:00 P:24 SP:9F
C107  A5 B1     LDA  A:00 X:00 Y:00 P:24 SP:9E
C109  29 03     AND  A:00 X:00 Y:00 P:26 SP:9E
C10B  F0 51     BEQ  A:00 X:00 Y:00 P:26 SP:9E
C15E  4C 5B C3  JMP  A:00 X:00 Y:00 P:26 SP:9E
C35B  20 1F C4  JSR  A:00 X:00 Y:00 P:26 SP:9E
C41F  AD 29 03  LDA  A:00 X:00 Y:00 P:26 SP:9C
C422  85 1F     STA  A:00 X:00 Y:00 P:26 SP:9C
C424  A5 B9     LDA  A:00 X:00 Y:00 P:26 SP:9C
C426  4C 30 C4  JMP  A:00 X:00 Y:00 P:26 SP:9C
C430  38        SEC  A:00 X:00 Y:00 P:26 SP:9C
C431  E5 1F     SBC  A:00 X:00 Y:00 P:27 SP:9C
C433  10 07     BPL  A:00 X:00 Y:00 P:27 SP:9C
C43C  C9 05     CMP  A:00 X:00 Y:00 P:27 SP:9C
C43E  B0 03     BCS  A:00 X:00 Y:00 P:A4 SP:9C
C440  A0 02     LDY  A:00 X:00 Y:00 P:A4 SP:9C
C442  60        RTS  A:00 X:00 Y:02 P:24 SP:9C
C35E  A5 10     LDA  A:00 X:00 Y:02 P:24 SP:9E
C360  29 03     AND  A:00 X:00 Y:02 P:26 SP:9E
C362  88        DEY  A:00 X:00 Y:02 P:26 SP:9E
C363  F0 11     BEQ  A:00 X:00 Y:01 P:24 SP:9E
C365  C9 02     CMP  A:00 X:00 Y:01 P:24 SP:9E
C367  D0 11     BNE  A:00 X:00 Y:01 P:A4 SP:9E
C37A  4C A8 C3  JMP  A:00 X:00 Y:01 P:A4 SP:9E
C3A8  A0 00     LDY  A:00 X:00 Y:01 P:A4 SP:9E
C3AA  84 C1     STY  A:00 X:00 Y:00 P:26 SP:9E
C3AC  8C 31 03  STY  A:00 X:00 Y:00 P:26 SP:9E
C3AF  C8        INY  A:00 X:00 Y:00 P:26 SP:9E
C3B0  8C FF 05  STY  A:00 X:00 Y:01 P:24 SP:9E
C3B3  A4 BB     LDY  A:00 X:00 Y:01 P:24 SP:9E
C3B5  D0 02     BNE  A:00 X:00 Y:00 P:26 SP:9E
C3B7  85 BB     STA  A:00 X:00 Y:00 P:26 SP:9E
C3B9  AC 2B 03  LDY  A:00 X:00 Y:00 P:26 SP:9E
C3BC  D0 03     BNE  A:00 X:00 Y:00 P:26 SP:9E
C3BE  8D 2B 03  STA  A:00 X:00 Y:00 P:26 SP:9E
C3C1  60        RTS  A:00 X:00 Y:00 P:26 SP:9E
3601  00 A0     BRK  A:00 X:00 Y:00 P:26 SP:A0
C000  D8        CLD  A:00 X:00 Y:00 P:26 SP:9D
C001  78        SEI  A:00 X:00 Y:00 P:26 SP:9D
C002  AD 02 20  LDA  A:00 X:00 Y:00 P:26 SP:9D
READING OUT OF PPU MMIO RANGE!!!
C005  10 FB     BPL  A:00 X:00 Y:00 P:26 SP:9D
C102  B1 29     LDA  A:00 X:00 Y:00 P:26 SP:9D
C104  C0 D0     CPY  A:00 X:00 Y:00 P:26 SP:9D
C106  48        PHA  A:00 X:00 Y:00 P:24 SP:9D
C107  A5 B1     LDA  A:00 X:00 Y:00 P:24 SP:9C
C109  29 03     AND  A:00 X:00 Y:00 P:26 SP:9C
C10B  F0 51     BEQ  A:00 X:00 Y:00 P:26 SP:9C
C15E  4C 5B C3  JMP  A:00 X:00 Y:00 P:26 SP:9C
C35B  20 1F C4  JSR  A:00 X:00 Y:00 P:26 SP:9C
C41F  AD 29 03  LDA  A:00 X:00 Y:00 P:26 SP:9A
C422  85 1F     STA  A:00 X:00 Y:00 P:26 SP:9A
C424  A5 B9     LDA  A:00 X:00 Y:00 P:26 SP:9A
C426  4C 30 C4  JMP  A:00 X:00 Y:00 P:26 SP:9A
C430  38        SEC  A:00 X:00 Y:00 P:26 SP:9A
C431  E5 1F     SBC  A:00 X:00 Y:00 P:27 SP:9A
C433  10 07     BPL  A:00 X:00 Y:00 P:27 SP:9A
C43C  C9 05     CMP  A:00 X:00 Y:00 P:27 SP:9A
C43E  B0 03     BCS  A:00 X:00 Y:00 P:A4 SP:9A
C440  A0 02     LDY  A:00 X:00 Y:00 P:A4 SP:9A
C442  60        RTS  A:00 X:00 Y:02 P:24 SP:9A
C35E  A5 10     LDA  A:00 X:00 Y:02 P:24 SP:9C
C360  29 03     AND  A:00 X:00 Y:02 P:26 SP:9C
C362  88        DEY  A:00 X:00 Y:02 P:26 SP:9C
C363  F0 11     BEQ  A:00 X:00 Y:01 P:24 SP:9C
C365  C9 02     CMP  A:00 X:00 Y:01 P:24 SP:9C
C367  D0 11     BNE  A:00 X:00 Y:01 P:A4 SP:9C
C37A  4C A8 C3  JMP  A:00 X:00 Y:01 P:A4 SP:9C
C3A8  A0 00     LDY  A:00 X:00 Y:01 P:A4 SP:9C
C3AA  84 C1     STY  A:00 X:00 Y:00 P:26 SP:9C
C3AC  8C 31 03  STY  A:00 X:00 Y:00 P:26 SP:9C
C3AF  C8        INY  A:00 X:00 Y:00 P:26 SP:9C
C3B0  8C FF 05  STY  A:00 X:00 Y:01 P:24 SP:9C
C3B3  A4 BB     LDY  A:00 X:00 Y:01 P:24 SP:9C
C3B5  D0 02     BNE  A:00 X:00 Y:00 P:26 SP:9C
C3B7  85 BB     STA  A:00 X:00 Y:00 P:26 SP:9C
C3B9  AC 2B 03  LDY  A:00 X:00 Y:00 P:26 SP:9C
C3BC  D0 03     BNE  A:00 X:00 Y:00 P:26 SP:9C
C3BE  8D 2B 03  STA  A:00 X:00 Y:00 P:26 SP:9C
C3C1  60        RTS  A:00 X:00 Y:00 P:26 SP:9C
3601  A0 A0     LDY  A:00 X:00 Y:00 P:26 SP:9E
3603  A0 AC     LDY  A:00 X:00 Y:A0 P:A4 SP:9E
3605  AC AC 00  LDY  A:00 X:00 Y:AC P:A4 SP:9E
3608  00 00     BRK  A:00 X:00 Y:00 P:26 SP:9E
C000  D8        CLD  A:00 X:00 Y:00 P:26 SP:9B
C001  78        SEI  A:00 X:00 Y:00 P:26 SP:9B
C002  AD 02 20  LDA  A:00 X:00 Y:00 P:26 SP:9B
READING OUT OF PPU MMIO RANGE!!!
C005  10 FB     BPL  A:00 X:00 Y:00 P:26 SP:9B
C102  B1 29     LDA  A:00 X:00 Y:00 P:26 SP:9B
C104  C0 D0     CPY  A:00 X:00 Y:00 P:26 SP:9B
C106  48        PHA  A:00 X:00 Y:00 P:24 SP:9B
C107  A5 B1     LDA  A:00 X:00 Y:00 P:24 SP:9A
C109  29 03     AND  A:00 X:00 Y:00 P:26 SP:9A
C10B  F0 51     BEQ  A:00 X:00 Y:00 P:26 SP:9A
C15E  4C 5B C3  JMP  A:00 X:00 Y:00 P:26 SP:9A
C35B  20 1F C4  JSR  A:00 X:00 Y:00 P:26 SP:9A
C41F  AD 29 03  LDA  A:00 X:00 Y:00 P:26 SP:98
C422  85 1F     STA  A:00 X:00 Y:00 P:26 SP:98
C424  A5 B9     LDA  A:00 X:00 Y:00 P:26 SP:98
C426  4C 30 C4  JMP  A:00 X:00 Y:00 P:26 SP:98
C430  38        SEC  A:00 X:00 Y:00 P:26 SP:98
C431  E5 1F     SBC  A:00 X:00 Y:00 P:27 SP:98
C433  10 07     BPL  A:00 X:00 Y:00 P:27 SP:98
C43C  C9 05     CMP  A:00 X:00 Y:00 P:27 SP:98
C43E  B0 03     BCS  A:00 X:00 Y:00 P:A4 SP:98
C440  A0 02     LDY  A:00 X:00 Y:00 P:A4 SP:98
C442  60        RTS  A:00 X:00 Y:02 P:24 SP:98
C35E  A5 10     LDA  A:00 X:00 Y:02 P:24 SP:9A
C360  29 03     AND  A:00 X:00 Y:02 P:26 SP:9A
C362  88        DEY  A:00 X:00 Y:02 P:26 SP:9A
C363  F0 11     BEQ  A:00 X:00 Y:01 P:24 SP:9A
C365  C9 02     CMP  A:00 X:00 Y:01 P:24 SP:9A
C367  D0 11     BNE  A:00 X:00 Y:01 P:A4 SP:9A
C37A  4C A8 C3  JMP  A:00 X:00 Y:01 P:A4 SP:9A
C3A8  A0 00     LDY  A:00 X:00 Y:01 P:A4 SP:9A
C3AA  84 C1     STY  A:00 X:00 Y:00 P:26 SP:9A
C3AC  8C 31 03  STY  A:00 X:00 Y:00 P:26 SP:9A
C3AF  C8        INY  A:00 X:00 Y:00 P:26 SP:9A
C3B0  8C FF 05  STY  A:00 X:00 Y:01 P:24 SP:9A
C3B3  A4 BB     LDY  A:00 X:00 Y:01 P:24 SP:9A
C3B5  D0 02     BNE  A:00 X:00 Y:00 P:26 SP:9A
C3B7  85 BB     STA  A:00 X:00 Y:00 P:26 SP:9A
C3B9  AC 2B 03  LDY  A:00 X:00 Y:00 P:26 SP:9A
C3BC  D0 03     BNE  A:00 X:00 Y:00 P:26 SP:9A
C3BE  8D 2B 03  STA  A:00 X:00 Y:00 P:26 SP:9A
C3C1  60        RTS  A:00 X:00 Y:00 P:26 SP:9A
3601  00 A0     BRK  A:00 X:00 Y:00 P:26 SP:9C
C000  D8        CLD  A:00 X:00 Y:00 P:26 SP:99
C001  78        SEI  A:00 X:00 Y:00 P:26 SP:99
C002  AD 02 20  LDA  A:00 X:00 Y:00 P:26 SP:99
READING OUT OF PPU MMIO RANGE!!!
C005  10 FB     BPL  A:00 X:00 Y:00 P:26 SP:99
C102  B1 29     LDA  A:00 X:00 Y:00 P:26 SP:99
C104  C0 D0     CPY  A:00 X:00 Y:00 P:26 SP:99
C106  48        PHA  A:00 X:00 Y:00 P:24 SP:99
C107  A5 B1     LDA  A:00 X:00 Y:00 P:24 SP:98
C109  29 03     AND  A:00 X:00 Y:00 P:26 SP:98
C10B  F0 51     BEQ  A:00 X:00 Y:00 P:26 SP:98
C15E  4C 5B C3  JMP  A:00 X:00 Y:00 P:26 SP:98
C35B  20 1F C4  JSR  A:00 X:00 Y:00 P:26 SP:98
C41F  AD 29 03  LDA  A:00 X:00 Y:00 P:26 SP:96
C422  85 1F     STA  A:00 X:00 Y:00 P:26 SP:96
C424  A5 B9     LDA  A:00 X:00 Y:00 P:26 SP:96
C426  4C 30 C4  JMP  A:00 X:00 Y:00 P:26 SP:96
C430  38        SEC  A:00 X:00 Y:00 P:26 SP:96
C431  E5 1F     SBC  A:00 X:00 Y:00 P:27 SP:96
C433  10 07     BPL  A:00 X:00 Y:00 P:27 SP:96
C43C  C9 05     CMP  A:00 X:00 Y:00 P:27 SP:96
C43E  B0 03     BCS  A:00 X:00 Y:00 P:A4 SP:96
C440  A0 02     LDY  A:00 X:00 Y:00 P:A4 SP:96
C442  60        RTS  A:00 X:00 Y:02 P:24 SP:96
C35E  A5 10     LDA  A:00 X:00 Y:02 P:24 SP:98
C360  29 03     AND  A:00 X:00 Y:02 P:26 SP:98
C362  88        DEY  A:00 X:00 Y:02 P:26 SP:98
C363  F0 11     BEQ  A:00 X:00 Y:01 P:24 SP:98
C365  C9 02     CMP  A:00 X:00 Y:01 P:24 SP:98
C367  D0 11     BNE  A:00 X:00 Y:01 P:A4 SP:98
C37A  4C A8 C3  JMP  A:00 X:00 Y:01 P:A4 SP:98
C3A8  A0 00     LDY  A:00 X:00 Y:01 P:A4 SP:98
C3AA  84 C1     STY  A:00 X:00 Y:00 P:26 SP:98
C3AC  8C 31 03  STY  A:00 X:00 Y:00 P:26 SP:98
C3AF  C8        INY  A:00 X:00 Y:00 P:26 SP:98
C3B0  8C FF 05  STY  A:00 X:00 Y:01 P:24 SP:98
C3B3  A4 BB     LDY  A:00 X:00 Y:01 P:24 SP:98
C3B5  D0 02     BNE  A:00 X:00 Y:00 P:26 SP:98
C3B7  85 BB     STA  A:00 X:00 Y:00 P:26 SP:98
C3B9  AC 2B 03  LDY  A:00 X:00 Y:00 P:26 SP:98
C3BC  D0 03     BNE  A:00 X:00 Y:00 P:26 SP:98
C3BE  8D 2B 03  STA  A:00 X:00 Y:00 P:26 SP:98
C3C1  60        RTS  A:00 X:00 Y:00 P:26 SP:98
3601  A0 A0     LDY  A:00 X:00 Y:00 P:26 SP:9A
3603  A0 AC     LDY  A:00 X:00 Y:A0 P:A4 SP:9A
3605  AC AC 00  LDY  A:00 X:00 Y:AC P:A4 SP:9A
3608  00 00     BRK  A:00 X:00 Y:00 P:26 SP:9A
C000  D8        CLD  A:00 X:00 Y:00 P:26 SP:97
C001  78        SEI  A:00 X:00 Y:00 P:26 SP:97
C002  AD 02 20  LDA  A:00 X:00 Y:00 P:26 SP:97
READING OUT OF PPU MMIO RANGE!!!
C005  10 FB     BPL  A:00 X:00 Y:00 P:26 SP:97
C102  B1 29     LDA  A:00 X:00 Y:00 P:26 SP:97
C104  C0 D0     CPY  A:00 X:00 Y:00 P:26 SP:97
C106  48        PHA  A:00 X:00 Y:00 P:24 SP:97
C107  A5 B1     LDA  A:00 X:00 Y:00 P:24 SP:96
C109  29 03     AND  A:00 X:00 Y:00 P:26 SP:96
C10B  F0 51     BEQ  A:00 X:00 Y:00 P:26 SP:96
C15E  4C 5B C3  JMP  A:00 X:00 Y:00 P:26 SP:96
C35B  20 1F C4  JSR  A:00 X:00 Y:00 P:26 SP:96
C41F  AD 29 03  LDA  A:00 X:00 Y:00 P:26 SP:94
C422  85 1F     STA  A:00 X:00 Y:00 P:26 SP:94
C424  A5 B9     LDA  A:00 X:00 Y:00 P:26 SP:94
C426  4C 30 C4  JMP  A:00 X:00 Y:00 P:26 SP:94
C430  38        SEC  A:00 X:00 Y:00 P:26 SP:94
C431  E5 1F     SBC  A:00 X:00 Y:00 P:27 SP:94
C433  10 07     BPL  A:00 X:00 Y:00 P:27 SP:94
C43C  C9 05     CMP  A:00 X:00 Y:00 P:27 SP:94
C43E  B0 03     BCS  A:00 X:00 Y:00 P:A4 SP:94
C440  A0 02     LDY  A:00 X:00 Y:00 P:A4 SP:94
C442  60        RTS  A:00 X:00 Y:02 P:24 SP:94
C35E  A5 10     LDA  A:00 X:00 Y:02 P:24 SP:96
C360  29 03     AND  A:00 X:00 Y:02 P:26 SP:96
C362  88        DEY  A:00 X:00 Y:02 P:26 SP:96
C363  F0 11     BEQ  A:00 X:00 Y:01 P:24 SP:96
C365  C9 02     CMP  A:00 X:00 Y:01 P:24 SP:96
C367  D0 11     BNE  A:00 X:00 Y:01 P:A4 SP:96
C37A  4C A8 C3  JMP  A:00 X:00 Y:01 P:A4 SP:96
C3A8  A0 00     LDY  A:00 X:00 Y:01 P:A4 SP:96
C3AA  84 C1     STY  A:00 X:00 Y:00 P:26 SP:96
C3AC  8C 31 03  STY  A:00 X:00 Y:00 P:26 SP:96
C3AF  C8        INY  A:00 X:00 Y:00 P:26 SP:96
C3B0  8C FF 05  STY  A:00 X:00 Y:01 P:24 SP:96
C3B3  A4 BB     LDY  A:00 X:00 Y:01 P:24 SP:96
C3B5  D0 02     BNE  A:00 X:00 Y:00 P:26 SP:96
C3B7  85 BB     STA  A:00 X:00 Y:00 P:26 SP:96
C3B9  AC 2B 03  LDY  A:00 X:00 Y:00 P:26 SP:96
C3BC  D0 03     BNE  A:00 X:00 Y:00 P:26 SP:96
C3BE  8D 2B 03  STA  A:00 X:00 Y:00 P:26 SP:96
C3C1  60        RTS  A:00 X:00 Y:00 P:26 SP:96
3601  00 A0     BRK  A:00 X:00 Y:00 P:26 SP:98
C000  D8        CLD  A:00 X:00 Y:00 P:26 SP:95
C001  78        SEI  A:00 X:00 Y:00 P:26 SP:95
C002  AD 02 20  LDA  A:00 X:00 Y:00 P:26 SP:95
READING OUT OF PPU MMIO RANGE!!!
C005  10 FB     BPL  A:00 X:00 Y:00 P:26 SP:95
C102  B1 29     LDA  A:00 X:00 Y:00 P:26 SP:95
C104  C0 D0     CPY  A:00 X:00 Y:00 P:26 SP:95
C106  48        PHA  A:00 X:00 Y:00 P:24 SP:95
C107  A5 B1     LDA  A:00 X:00 Y:00 P:24 SP:94
C109  29 03     AND  A:00 X:00 Y:00 P:26 SP:94
C10B  F0 51     BEQ  A:00 X:00 Y:00 P:26 SP:94
C15E  4C 5B C3  JMP  A:00 X:00 Y:00 P:26 SP:94
C35B  20 1F C4  JSR  A:00 X:00 Y:00 P:26 SP:94
C41F  AD 29 03  LDA  A:00 X:00 Y:00 P:26 SP:92
C422  85 1F     STA  A:00 X:00 Y:00 P:26 SP:92
C424  A5 B9     LDA  A:00 X:00 Y:00 P:26 SP:92
C426  4C 30 C4  JMP  A:00 X:00 Y:00 P:26 SP:92
C430  38        SEC  A:00 X:00 Y:00 P:26 SP:92
C431  E5 1F     SBC  A:00 X:00 Y:00 P:27 SP:92
C433  10 07     BPL  A:00 X:00 Y:00 P:27 SP:92
C43C  C9 05     CMP  A:00 X:00 Y:00 P:27 SP:92
C43E  B0 03     BCS  A:00 X:00 Y:00 P:A4 SP:92
C440  A0 02     LDY  A:00 X:00 Y:00 P:A4 SP:92
C442  60        RTS  A:00 X:00 Y:02 P:24 SP:92
C35E  A5 10     LDA  A:00 X:00 Y:02 P:24 SP:94
C360  29 03     AND  A:00 X:00 Y:02 P:26 SP:94
C362  88        DEY  A:00 X:00 Y:02 P:26 SP:94
C363  F0 11     BEQ  A:00 X:00 Y:01 P:24 SP:94
C365  C9 02     CMP  A:00 X:00 Y:01 P:24 SP:94
C367  D0 11     BNE  A:00 X:00 Y:01 P:A4 SP:94
C37A  4C A8 C3  JMP  A:00 X:00 Y:01 P:A4 SP:94
C3A8  A0 00     LDY  A:00 X:00 Y:01 P:A4 SP:94
C3AA  84 C1     STY  A:00 X:00 Y:00 P:26 SP:94
C3AC  8C 31 03  STY  A:00 X:00 Y:00 P:26 SP:94
C3AF  C8        INY  A:00 X:00 Y:00 P:26 SP:94
C3B0  8C FF 05  STY  A:00 X:00 Y:01 P:24 SP:94
C3B3  A4 BB     LDY  A:00 X:00 Y:01 P:24 SP:94
C3B5  D0 02     BNE  A:00 X:00 Y:00 P:26 SP:94
C3B7  85 BB     STA  A:00 X:00 Y:00 P:26 SP:94
C3B9  AC 2B 03  LDY  A:00 X:00 Y:00 P:26 SP:94
C3BC  D0 03     BNE  A:00 X:00 Y:00 P:26 SP:94
C3BE  8D 2B 03  STA  A:00 X:00 Y:00 P:26 SP:94
C3C1  60        RTS  A:00 X:00 Y:00 P:26 SP:94
3601  A0 A0     LDY  A:00 X:00 Y:00 P:26 SP:96
3603  A0 AC     LDY  A:00 X:00 Y:A0 P:A4 SP:96
3605  AC AC 00  LDY  A:00 X:00 Y:AC P:A4 SP:96
3608  00 00     BRK  A:00 X:00 Y:00 P:26 SP:96
C000  D8        CLD  A:00 X:00 Y:00 P:26 SP:93
C001  78        SEI  A:00 X:00 Y:00 P:26 SP:93
C002  AD 02 20  LDA  A:00 X:00 Y:00 P:26 SP:93
READING OUT OF PPU MMIO RANGE!!!
C005  10 FB     BPL  A:00 X:00 Y:00 P:26 SP:93
C102  B1 29     LDA  A:00 X:00 Y:00 P:26 SP:93
C104  C0 D0     CPY  A:00 X:00 Y:00 P:26 SP:93
C106  48        PHA  A:00 X:00 Y:00 P:24 SP:93
C107  A5 B1     LDA  A:00 X:00 Y:00 P:24 SP:92
C109  29 03     AND  A:00 X:00 Y:00 P:26 SP:92
C10B  F0 51     BEQ  A:00 X:00 Y:00 P:26 SP:92
C15E  4C 5B C3  JMP  A:00 X:00 Y:00 P:26 SP:92
C35B  20 1F C4  JSR  A:00 X:00 Y:00 P:26 SP:92
C41F  AD 29 03  LDA  A:00 X:00 Y:00 P:26 SP:90
C422  85 1F     STA  A:00 X:00 Y:00 P:26 SP:90
C424  A5 B9     LDA  A:00 X:00 Y:00 P:26 SP:90
C426  4C 30 C4  JMP  A:00 X:00 Y:00 P:26 SP:90
C430  38        SEC  A:00 X:00 Y:00 P:26 SP:90
C431  E5 1F     SBC  A:00 X:00 Y:00 P:27 SP:90
C433  10 07     BPL  A:00 X:00 Y:00 P:27 SP:90
C43C  C9 05     CMP  A:00 X:00 Y:00 P:27 SP:90
C43E  B0 03     BCS  A:00 X:00 Y:00 P:A4 SP:90
C440  A0 02     LDY  A:00 X:00 Y:00 P:A4 SP:90
C442  60        RTS  A:00 X:00 Y:02 P:24 SP:90
C35E  A5 10     LDA  A:00 X:00 Y:02 P:24 SP:92
C360  29 03     AND  A:00 X:00 Y:02 P:26 SP:92
C362  88        DEY  A:00 X:00 Y:02 P:26 SP:92
C363  F0 11     BEQ  A:00 X:00 Y:01 P:24 SP:92
C365  C9 02     CMP  A:00 X:00 Y:01 P:24 SP:92
C367  D0 11     BNE  A:00 X:00 Y:01 P:A4 SP:92
C37A  4C A8 C3  JMP  A:00 X:00 Y:01 P:A4 SP:92
C3A8  A0 00     LDY  A:00 X:00 Y:01 P:A4 SP:92
C3AA  84 C1     STY  A:00 X:00 Y:00 P:26 SP:92
C3AC  8C 31 03  STY  A:00 X:00 Y:00 P:26 SP:92
C3AF  C8        INY  A:00 X:00 Y:00 P:26 SP:92
C3B0  8C FF 05  STY  A:00 X:00 Y:01 P:24 SP:92
C3B3  A4 BB     LDY  A:00 X:00 Y:01 P:24 SP:92
C3B5  D0 02     BNE  A:00 X:00 Y:00 P:26 SP:92
C3B7  85 BB     STA  A:00 X:00 Y:00 P:26 SP:92
C3B9  AC 2B 03  LDY  A:00 X:00 Y:00 P:26 SP:92
C3BC  D0 03     BNE  A:00 X:00 Y:00 P:26 SP:92
C3BE  8D 2B 03  STA  A:00 X:00 Y:00 P:26 SP:92
C3C1  60        RTS  A:00 X:00 Y:00 P:26 SP:92
3601  00 A0     BRK  A:00 X:00 Y:00 P:26 SP:94
C000  D8        CLD  A:00 X:00 Y:00 P:26 SP:91
C001  78        SEI  A:00 X:00 Y:00 P:26 SP:91
C002  AD 02 20  LDA  A:00 X:00 Y:00 P:26 SP:91
READING OUT OF PPU MMIO RANGE!!!
C005  10 FB     BPL  A:00 X:00 Y:00 P:26 SP:91
C102  B1 29     LDA  A:00 X:00 Y:00 P:26 SP:91
C104  C0 D0     CPY  A:00 X:00 Y:00 P:26 SP:91
C106  48        PHA  A:00 X:00 Y:00 P:24 SP:91
C107  A5 B1     LDA  A:00 X:00 Y:00 P:24 SP:90
C109  29 03     AND  A:00 X:00 Y:00 P:26 SP:90
C10B  F0 51     BEQ  A:00 X:00 Y:00 P:26 SP:90
C15E  4C 5B C3  JMP  A:00 X:00 Y:00 P:26 SP:90
C35B  20 1F C4  JSR  A:00 X:00 Y:00 P:26 SP:90
C41F  AD 29 03  LDA  A:00 X:00 Y:00 P:26 SP:8E
C422  85 1F     STA  A:00 X:00 Y:00 P:26 SP:8E
C424  A5 B9     LDA  A:00 X:00 Y:00 P:26 SP:8E
C426  4C 30 C4  JMP  A:00 X:00 Y:00 P:26 SP:8E
C430  38        SEC  A:00 X:00 Y:00 P:26 SP:8E
C431  E5 1F     SBC  A:00 X:00 Y:00 P:27 SP:8E
C433  10 07     BPL  A:00 X:00 Y:00 P:27 SP:8E
C43C  C9 05     CMP  A:00 X:00 Y:00 P:27 SP:8E
C43E  B0 03     BCS  A:00 X:00 Y:00 P:A4 SP:8E
C440  A0 02     LDY  A:00 X:00 Y:00 P:A4 SP:8E
C442  60        RTS  A:00 X:00 Y:02 P:24 SP:8E
C35E  A5 10     LDA  A:00 X:00 Y:02 P:24 SP:90
C360  29 03     AND  A:00 X:00 Y:02 P:26 SP:90
C362  88        DEY  A:00 X:00 Y:02 P:26 SP:90
C363  F0 11     BEQ  A:00 X:00 Y:01 P:24 SP:90
C365  C9 02     CMP  A:00 X:00 Y:01 P:24 SP:90
C367  D0 11     BNE  A:00 X:00 Y:01 P:A4 SP:90
C37A  4C A8 C3  JMP  A:00 X:00 Y:01 P:A4 SP:90
C3A8  A0 00     LDY  A:00 X:00 Y:01 P:A4 SP:90
C3AA  84 C1     STY  A:00 X:00 Y:00 P:26 SP:90
C3AC  8C 31 03  STY  A:00 X:00 Y:00 P:26 SP:90
C3AF  C8        INY  A:00 X:00 Y:00 P:26 SP:90
C3B0  8C FF 05  STY  A:00 X:00 Y:01 P:24 SP:90
C3B3  A4 BB     LDY  A:00 X:00 Y:01 P:24 SP:90
C3B5  D0 02     BNE  A:00 X:00 Y:00 P:26 SP:90
C3B7  85 BB     STA  A:00 X:00 Y:00 P:26 SP:90
C3B9  AC 2B 03  LDY  A:00 X:00 Y:00 P:26 SP:90
C3BC  D0 03     BNE  A:00 X:00 Y:00 P:26 SP:90
C3BE  8D 2B 03  STA  A:00 X:00 Y:00 P:26 SP:90
C3C1  60        RTS  A:00 X:00 Y:00 P:26 SP:90
3601  A0 A0     LDY  A:00 X:00 Y:00 P:26 SP:92
3603  A0 AC     LDY  A:00 X:00 Y:A0 P:A4 SP:92
3605  AC AC 00  LDY  A:00 X:00 Y:AC P:A4 SP:92
3608  00 00     BRK  A:00 X:00 Y:00 P:26 SP:92
C000  D8        CLD  A:00 X:00 Y:00 P:26 SP:8F
C001  78        SEI  A:00 X:00 Y:00 P:26 SP:8F
C002  AD 02 20  LDA  A:00 X:00 Y:00 P:26 SP:8F
READING OUT OF PPU MMIO RANGE!!!
C005  10 FB     BPL  A:00 X:00 Y:00 P:26 SP:8F
C102  B1 29     LDA  A:00 X:00 Y:00 P:26 SP:8F
C104  C0 D0     CPY  A:00 X:00 Y:00 P:26 SP:8F
C106  48        PHA  A:00 X:00 Y:00 P:24 SP:8F
C107  A5 B1     LDA  A:00 X:00 Y:00 P:24 SP:8E
C109  29 03     AND  A:00 X:00 Y:00 P:26 SP:8E
C10B  F0 51     BEQ  A:00 X:00 Y:00 P:26 SP:8E
C15E  4C 5B C3  JMP  A:00 X:00 Y:00 P:26 SP:8E
C35B  20 1F C4  JSR  A:00 X:00 Y:00 P:26 SP:8E
C41F  AD 29 03  LDA  A:00 X:00 Y:00 P:26 SP:8C
C422  85 1F     STA  A:00 X:00 Y:00 P:26 SP:8C
C424  A5 B9     LDA  A:00 X:00 Y:00 P:26 SP:8C
C426  4C 30 C4  JMP  A:00 X:00 Y:00 P:26 SP:8C
C430  38        SEC  A:00 X:00 Y:00 P:26 SP:8C
C431  E5 1F     SBC  A:00 X:00 Y:00 P:27 SP:8C
C433  10 07     BPL  A:00 X:00 Y:00 P:27 SP:8C
C43C  C9 05     CMP  A:00 X:00 Y:00 P:27 SP:8C
C43E  B0 03     BCS  A:00 X:00 Y:00 P:A4 SP:8C
C440  A0 02     LDY  A:00 X:00 Y:00 P:A4 SP:8C
C442  60        RTS  A:00 X:00 Y:02 P:24 SP:8C
C35E  A5 10     LDA  A:00 X:00 Y:02 P:24 SP:8E
C360  29 03     AND  A:00 X:00 Y:02 P:26 SP:8E
C362  88        DEY  A:00 X:00 Y:02 P:26 SP:8E
C363  F0 11     BEQ  A:00 X:00 Y:01 P:24 SP:8E
C365  C9 02     CMP  A:00 X:00 Y:01 P:24 SP:8E
C367  D0 11     BNE  A:00 X:00 Y:01 P:A4 SP:8E
C37A  4C A8 C3  JMP  A:00 X:00 Y:01 P:A4 SP:8E
C3A8  A0 00     LDY  A:00 X:00 Y:01 P:A4 SP:8E
C3AA  84 C1     STY  A:00 X:00 Y:00 P:26 SP:8E
C3AC  8C 31 03  STY  A:00 X:00 Y:00 P:26 SP:8E
C3AF  C8        INY  A:00 X:00 Y:00 P:26 SP:8E
C3B0  8C FF 05  STY  A:00 X:00 Y:01 P:24 SP:8E
C3B3  A4 BB     LDY  A:00 X:00 Y:01 P:24 SP:8E
C3B5  D0 02     BNE  A:00 X:00 Y:00 P:26 SP:8E
C3B7  85 BB     STA  A:00 X:00 Y:00 P:26 SP:8E
C3B9  AC 2B 03  LDY  A:00 X:00 Y:00 P:26 SP:8E
C3BC  D0 03     BNE  A:00 X:00 Y:00 P:26 SP:8E
C3BE  8D 2B 03  STA  A:00 X:00 Y:00 P:26 SP:8E
C3C1  60        RTS  A:00 X:00 Y:00 P:26 SP:8E
3601  00 A0     BRK  A:00 X:00 Y:00 P:26 SP:90
C000  D8        CLD  A:00 X:00 Y:00 P:26 SP:8D
C001  78        SEI  A:00 X:00 Y:00 P:26 SP:8D
C002  AD 02 20  LDA  A:00 X:00 Y:00 P:26 SP:8D
READING OUT OF PPU MMIO RANGE!!!
C005  10 FB     BPL  A:00 X:00 Y:00 P:26 SP:8D
C102  B1 29     LDA  A:00 X:00 Y:00 P:26 SP:8D
C104  C0 D0     CPY  A:00 X:00 Y:00 P:26 SP:8D
C106  48        PHA  A:00 X:00 Y:00 P:24 SP:8D
C107  A5 B1     LDA  A:00 X:00 Y:00 P:24 SP:8C
C109  29 03     AND  A:00 X:00 Y:00 P:26 SP:8C
C10B  F0 51     BEQ  A:00 X:00 Y:00 P:26 SP:8C
C15E  4C 5B C3  JMP  A:00 X:00 Y:00 P:26 SP:8C
C35B  20 1F C4  JSR  A:00 X:00 Y:00 P:26 SP:8C
C41F  AD 29 03  LDA  A:00 X:00 Y:00 P:26 SP:8A
C422  85 1F     STA  A:00 X:00 Y:00 P:26 SP:8A
C424  A5 B9     LDA  A:00 X:00 Y:00 P:26 SP:8A
C426  4C 30 C4  JMP  A:00 X:00 Y:00 P:26 SP:8A
C430  38        SEC  A:00 X:00 Y:00 P:26 SP:8A
C431  E5 1F     SBC  A:00 X:00 Y:00 P:27 SP:8A
C433  10 07     BPL  A:00 X:00 Y:00 P:27 SP:8A
C43C  C9 05     CMP  A:00 X:00 Y:00 P:27 SP:8A
C43E  B0 03     BCS  A:00 X:00 Y:00 P:A4 SP:8A
C440  A0 02     LDY  A:00 X:00 Y:00 P:A4 SP:8A
C442  60        RTS  A:00 X:00 Y:02 P:24 SP:8A
C35E  A5 10     LDA  A:00 X:00 Y:02 P:24 SP:8C
C360  29 03     AND  A:00 X:00 Y:02 P:26 SP:8C
C362  88        DEY  A:00 X:00 Y:02 P:26 SP:8C
C363  F0 11     BEQ  A:00 X:00 Y:01 P:24 SP:8C
C365  C9 02     CMP  A:00 X:00 Y:01 P:24 SP:8C
C367  D0 11     BNE  A:00 X:00 Y:01 P:A4 SP:8C
C37A  4C A8 C3  JMP  A:00 X:00 Y:01 P:A4 SP:8C
C3A8  A0 00     LDY  A:00 X:00 Y:01 P:A4 SP:8C
C3AA  84 C1     STY  A:00 X:00 Y:00 P:26 SP:8C
C3AC  8C 31 03  STY  A:00 X:00 Y:00 P:26 SP:8C
C3AF  C8        INY  A:00 X:00 Y:00 P:26 SP:8C
C3B0  8C FF 05  STY  A:00 X:00 Y:01 P:24 SP:8C
C3B3  A4 BB     LDY  A:00 X:00 Y:01 P:24 SP:8C
C3B5  D0 02     BNE  A:00 X:00 Y:00 P:26 SP:8C
C3B7  85 BB     STA  A:00 X:00 Y:00 P:26 SP:8C
C3B9  AC 2B 03  LDY  A:00 X:00 Y:00 P:26 SP:8C
C3BC  D0 03     BNE  A:00 X:00 Y:00 P:26 SP:8C
C3BE  8D 2B 03  STA  A:00 X:00 Y:00 P:26 SP:8C
C3C1  60        RTS  A:00 X:00 Y:00 P:26 SP:8C
3601  A0 A0     LDY  A:00 X:00 Y:00 P:26 SP:8E
3603  A0 AC     LDY  A:00 X:00 Y:A0 P:A4 SP:8E
3605  AC AC 00  LDY  A:00 X:00 Y:AC P:A4 SP:8E
3608  00 00     BRK  A:00 X:00 Y:00 P:26 SP:8E
C000  D8        CLD  A:00 X:00 Y:00 P:26 SP:8B
C001  78        SEI  A:00 X:00 Y:00 P:26 SP:8B
C002  AD 02 20  LDA  A:00 X:00 Y:00 P:26 SP:8B
READING OUT OF PPU MMIO RANGE!!!
C005  10 FB     BPL  A:00 X:00 Y:00 P:26 SP:8B
C102  B1 29     LDA  A:00 X:00 Y:00 P:26 SP:8B
C104  C0 D0     CPY  A:00 X:00 Y:00 P:26 SP:8B
C106  48        PHA  A:00 X:00 Y:00 P:24 SP:8B
C107  A5 B1     LDA  A:00 X:00 Y:00 P:24 SP:8A
C109  29 03     AND  A:00 X:00 Y:00 P:26 SP:8A
C10B  F0 51     BEQ  A:00 X:00 Y:00 P:26 SP:8A
C15E  4C 5B C3  JMP  A:00 X:00 Y:00 P:26 SP:8A
C35B  20 1F C4  JSR  A:00 X:00 Y:00 P:26 SP:8A
C41F  AD 29 03  LDA  A:00 X:00 Y:00 P:26 SP:88
C422  85 1F     STA  A:00 X:00 Y:00 P:26 SP:88
C424  A5 B9     LDA  A:00 X:00 Y:00 P:26 SP:88
C426  4C 30 C4  JMP  A:00 X:00 Y:00 P:26 SP:88
C430  38        SEC  A:00 X:00 Y:00 P:26 SP:88
C431  E5 1F     SBC  A:00 X:00 Y:00 P:27 SP:88
C433  10 07     BPL  A:00 X:00 Y:00 P:27 SP:88
C43C  C9 05     CMP  A:00 X:00 Y:00 P:27 SP:88
C43E  B0 03     BCS  A:00 X:00 Y:00 P:A4 SP:88
C440  A0 02     LDY  A:00 X:00 Y:00 P:A4 SP:88
C442  60        RTS  A:00 X:00 Y:02 P:24 SP:88
C35E  A5 10     LDA  A:00 X:00 Y:02 P:24 SP:8A
C360  29 03     AND  A:00 X:00 Y:02 P:26 SP:8A
C362  88        DEY  A:00 X:00 Y:02 P:26 SP:8A
C363  F0 11     BEQ  A:00 X:00 Y:01 P:24 SP:8A
C365  C9 02     CMP  A:00 X:00 Y:01 P:24 SP:8A
C367  D0 11     BNE  A:00 X:00 Y:01 P:A4 SP:8A
C37A  4C A8 C3  JMP  A:00 X:00 Y:01 P:A4 SP:8A
C3A8  A0 00     LDY  A:00 X:00 Y:01 P:A4 SP:8A
C3AA  84 C1     STY  A:00 X:00 Y:00 P:26 SP:8A
C3AC  8C 31 03  STY  A:00 X:00 Y:00 P:26 SP:8A
C3AF  C8        INY  A:00 X:00 Y:00 P:26 SP:8A
C3B0  8C FF 05  STY  A:00 X:00 Y:01 P:24 SP:8A
C3B3  A4 BB     LDY  A:00 X:00 Y:01 P:24 SP:8A
C3B5  D0 02     BNE  A:00 X:00 Y:00 P:26 SP:8A
C3B7  85 BB     STA  A:00 X:00 Y:00 P:26 SP:8A
C3B9  AC 2B 03  LDY  A:00 X:00 Y:00 P:26 SP:8A
C3BC  D0 03     BNE  A:00 X:00 Y:00 P:26 SP:8A
C3BE  8D 2B 03  STA  A:00 X:00 Y:00 P:26 SP:8A
C3C1  60        RTS  A:00 X:00 Y:00 P:26 SP:8A
3601  00 A0     BRK  A:00 X:00 Y:00 P:26 SP:8C
C000  D8        CLD  A:00 X:00 Y:00 P:26 SP:89
C001  78        SEI  A:00 X:00 Y:00 P:26 SP:89
C002  AD 02 20  LDA  A:00 X:00 Y:00 P:26 SP:89
READING OUT OF PPU MMIO RANGE!!!
C005  10 FB     BPL  A:00 X:00 Y:00 P:26 SP:89
C102  B1 29     LDA  A:00 X:00 Y:00 P:26 SP:89
C104  C0 D0     CPY  A:00 X:00 Y:00 P:26 SP:89
C106  48        PHA  A:00 X:00 Y:00 P:24 SP:89
C107  A5 B1     LDA  A:00 X:00 Y:00 P:24 SP:88
C109  29 03     AND  A:00 X:00 Y:00 P:26 SP:88
C10B  F0 51     BEQ  A:00 X:00 Y:00 P:26 SP:88
C15E  4C 5B C3  JMP  A:00 X:00 Y:00 P:26 SP:88
C35B  20 1F C4  JSR  A:00 X:00 Y:00 P:26 SP:88
C41F  AD 29 03  LDA  A:00 X:00 Y:00 P:26 SP:86
C422  85 1F     STA  A:00 X:00 Y:00 P:26 SP:86
C424  A5 B9     LDA  A:00 X:00 Y:00 P:26 SP:86
C426  4C 30 C4  JMP  A:00 X:00 Y:00 P:26 SP:86
C430  38        SEC  A:00 X:00 Y:00 P:26 SP:86
C431  E5 1F     SBC  A:00 X:00 Y:00 P:27 SP:86
C433  10 07     BPL  A:00 X:00 Y:00 P:27 SP:86
C43C  C9 05     CMP  A:00 X:00 Y:00 P:27 SP:86
C43E  B0 03     BCS  A:00 X:00 Y:00 P:A4 SP:86
C440  A0 02     LDY  A:00 X:00 Y:00 P:A4 SP:86
C442  60        RTS  A:00 X:00 Y:02 P:24 SP:86
C35E  A5 10     LDA  A:00 X:00 Y:02 P:24 SP:88
C360  29 03     AND  A:00 X:00 Y:02 P:26 SP:88
C362  88        DEY  A:00 X:00 Y:02 P:26 SP:88
C363  F0 11     BEQ  A:00 X:00 Y:01 P:24 SP:88
C365  C9 02     CMP  A:00 X:00 Y:01 P:24 SP:88
C367  D0 11     BNE  A:00 X:00 Y:01 P:A4 SP:88
C37A  4C A8 C3  JMP  A:00 X:00 Y:01 P:A4 SP:88
C3A8  A0 00     LDY  A:00 X:00 Y:01 P:A4 SP:88
C3AA  84 C1     STY  A:00 X:00 Y:00 P:26 SP:88
C3AC  8C 31 03  STY  A:00 X:00 Y:00 P:26 SP:88
C3AF  C8        INY  A:00 X:00 Y:00 P:26 SP:88
C3B0  8C FF 05  STY  A:00 X:00 Y:01 P:24 SP:88
C3B3  A4 BB     LDY  A:00 X:00 Y:01 P:24 SP:88
C3B5  D0 02     BNE  A:00 X:00 Y:00 P:26 SP:88
C3B7  85 BB     STA  A:00 X:00 Y:00 P:26 SP:88
C3B9  AC 2B 03  LDY  A:00 X:00 Y:00 P:26 SP:88
C3BC  D0 03     BNE  A:00 X:00 Y:00 P:26 SP:88
C3BE  8D 2B 03  STA  A:00 X:00 Y:00 P:26 SP:88
C3C1  60        RTS  A:00 X:00 Y:00 P:26 SP:88
3601  A0 A0     LDY  A:00 X:00 Y:00 P:26 SP:8A
3603  A0 AC     LDY  A:00 X:00 Y:A0 P:A4 SP:8A
3605  AC AC 00  LDY  A:00 X:00 Y:AC P:A4 SP:8A
3608  00 00     BRK  A:00 X:00 Y:00 P:26 SP:8A
C000  D8        CLD  A:00 X:00 Y:00 P:26 SP:87
C001  78        SEI  A:00 X:00 Y:00 P:26 SP:87
C002  AD 02 20  LDA  A:00 X:00 Y:00 P:26 SP:87
READING OUT OF PPU MMIO RANGE!!!
C005  10 FB     BPL  A:00 X:00 Y:00 P:26 SP:87
C102  B1 29     LDA  A:00 X:00 Y:00 P:26 SP:87
C104  C0 D0     CPY  A:00 X:00 Y:00 P:26 SP:87
C106  48        PHA  A:00 X:00 Y:00 P:24 SP:87
C107  A5 B1     LDA  A:00 X:00 Y:00 P:24 SP:86
C109  29 03     AND  A:00 X:00 Y:00 P:26 SP:86
C10B  F0 51     BEQ  A:00 X:00 Y:00 P:26 SP:86
C15E  4C 5B C3  JMP  A:00 X:00 Y:00 P:26 SP:86
C35B  20 1F C4  JSR  A:00 X:00 Y:00 P:26 SP:86
C41F  AD 29 03  LDA  A:00 X:00 Y:00 P:26 SP:84
C422  85 1F     STA  A:00 X:00 Y:00 P:26 SP:84
C424  A5 B9     LDA  A:00 X:00 Y:00 P:26 SP:84
C426  4C 30 C4  JMP  A:00 X:00 Y:00 P:26 SP:84
C430  38        SEC  A:00 X:00 Y:00 P:26 SP:84
C431  E5 1F     SBC  A:00 X:00 Y:00 P:27 SP:84
C433  10 07     BPL  A:00 X:00 Y:00 P:27 SP:84
C43C  C9 05     CMP  A:00 X:00 Y:00 P:27 SP:84
C43E  B0 03     BCS  A:00 X:00 Y:00 P:A4 SP:84
C440  A0 02     LDY  A:00 X:00 Y:00 P:A4 SP:84
C442  60        RTS  A:00 X:00 Y:02 P:24 SP:84
C35E  A5 10     LDA  A:00 X:00 Y:02 P:24 SP:86
C360  29 03     AND  A:00 X:00 Y:02 P:26 SP:86
C362  88        DEY  A:00 X:00 Y:02 P:26 SP:86
C363  F0 11     BEQ  A:00 X:00 Y:01 P:24 SP:86
C365  C9 02     CMP  A:00 X:00 Y:01 P:24 SP:86
C367  D0 11     BNE  A:00 X:00 Y:01 P:A4 SP:86
C37A  4C A8 C3  JMP  A:00 X:00 Y:01 P:A4 SP:86
C3A8  A0 00     LDY  A:00 X:00 Y:01 P:A4 SP:86
C3AA  84 C1     STY  A:00 X:00 Y:00 P:26 SP:86
C3AC  8C 31 03  STY  A:00 X:00 Y:00 P:26 SP:86
C3AF  C8        INY  A:00 X:00 Y:00 P:26 SP:86
C3B0  8C FF 05  STY  A:00 X:00 Y:01 P:24 SP:86
C3B3  A4 BB     LDY  A:00 X:00 Y:01 P:24 SP:86
C3B5  D0 02     BNE  A:00 X:00 Y:00 P:26 SP:86
C3B7  85 BB     STA  A:00 X:00 Y:00 P:26 SP:86
C3B9  AC 2B 03  LDY  A:00 X:00 Y:00 P:26 SP:86
C3BC  D0 03     BNE  A:00 X:00 Y:00 P:26 SP:86
C3BE  8D 2B 03  STA  A:00 X:00 Y:00 P:26 SP:86
C3C1  60        RTS  A:00 X:00 Y:00 P:26 SP:86
3601  00 A0     BRK  A:00 X:00 Y:00 P:26 SP:88
C000  D8        CLD  A:00 X:00 Y:00 P:26 SP:85
C001  78        SEI  A:00 X:00 Y:00 P:26 SP:85
C002  AD 02 20  LDA  A:00 X:00 Y:00 P:26 SP:85
READING OUT OF PPU MMIO RANGE!!!
C005  10 FB     BPL  A:00 X:00 Y:00 P:26 SP:85
C102  B1 29     LDA  A:00 X:00 Y:00 P:26 SP:85
C104  C0 D0     CPY  A:00 X:00 Y:00 P:26 SP:85
C106  48        PHA  A:00 X:00 Y:00 P:24 SP:85
C107  A5 B1     LDA  A:00 X:00 Y:00 P:24 SP:84
C109  29 03     AND  A:00 X:00 Y:00 P:26 SP:84
C10B  F0 51     BEQ  A:00 X:00 Y:00 P:26 SP:84
C15E  4C 5B C3  JMP  A:00 X:00 Y:00 P:26 SP:84
C35B  20 1F C4  JSR  A:00 X:00 Y:00 P:26 SP:84
C41F  AD 29 03  LDA  A:00 X:00 Y:00 P:26 SP:82
C422  85 1F     STA  A:00 X:00 Y:00 P:26 SP:82
C424  A5 B9     LDA  A:00 X:00 Y:00 P:26 SP:82
C426  4C 30 C4  JMP  A:00 X:00 Y:00 P:26 SP:82
C430  38        SEC  A:00 X:00 Y:00 P:26 SP:82
C431  E5 1F     SBC  A:00 X:00 Y:00 P:27 SP:82
C433  10 07     BPL  A:00 X:00 Y:00 P:27 SP:82
C43C  C9 05     CMP  A:00 X:00 Y:00 P:27 SP:82
C43E  B0 03     BCS  A:00 X:00 Y:00 P:A4 SP:82
C440  A0 02     LDY  A:00 X:00 Y:00 P:A4 SP:82
C442  60        RTS  A:00 X:00 Y:02 P:24 SP:82
C35E  A5 10     LDA  A:00 X:00 Y:02 P:24 SP:84
C360  29 03     AND  A:00 X:00 Y:02 P:26 SP:84
C362  88        DEY  A:00 X:00 Y:02 P:26 SP:84
C363  F0 11     BEQ  A:00 X:00 Y:01 P:24 SP:84
C365  C9 02     CMP  A:00 X:00 Y:01 P:24 SP:84
C367  D0 11     BNE  A:00 X:00 Y:01 P:A4 SP:84
C37A  4C A8 C3  JMP  A:00 X:00 Y:01 P:A4 SP:84
C3A8  A0 00     LDY  A:00 X:00 Y:01 P:A4 SP:84
C3AA  84 C1     STY  A:00 X:00 Y:00 P:26 SP:84
C3AC  8C 31 03  STY  A:00 X:00 Y:00 P:26 SP:84
C3AF  C8        INY  A:00 X:00 Y:00 P:26 SP:84
C3B0  8C FF 05  STY  A:00 X:00 Y:01 P:24 SP:84
C3B3  A4 BB     LDY  A:00 X:00 Y:01 P:24 SP:84
C3B5  D0 02     BNE  A:00 X:00 Y:00 P:26 SP:84
C3B7  85 BB     STA  A:00 X:00 Y:00 P:26 SP:84
C3B9  AC 2B 03  LDY  A:00 X:00 Y:00 P:26 SP:84
C3BC  D0 03     BNE  A:00 X:00 Y:00 P:26 SP:84
C3BE  8D 2B 03  STA  A:00 X:00 Y:00 P:26 SP:84
C3C1  60        RTS  A:00 X:00 Y:00 P:26 SP:84
3601  A0 A0     LDY  A:00 X:00 Y:00 P:26 SP:86
3603  A0 AC     LDY  A:00 X:00 Y:A0 P:A4 SP:86
3605  AC AC 00  LDY  A:00 X:00 Y:AC P:A4 SP:86
3608  00 00     BRK  A:00 X:00 Y:00 P:26 SP:86
C000  D8        CLD  A:00 X:00 Y:00 P:26 SP:83
C001  78        SEI  A:00 X:00 Y:00 P:26 SP:83
C002  AD 02 20  LDA  A:00 X:00 Y:00 P:26 SP:83
READING OUT OF PPU MMIO RANGE!!!
C005  10 FB     BPL  A:00 X:00 Y:00 P:26 SP:83
C102  B1 29     LDA  A:00 X:00 Y:00 P:26 SP:83
C104  C0 D0     CPY  A:00 X:00 Y:00 P:26 SP:83
C106  48        PHA  A:00 X:00 Y:00 P:24 SP:83
C107  A5 B1     LDA  A:00 X:00 Y:00 P:24 SP:82
C109  29 03     AND  A:00 X:00 Y:00 P:26 SP:82
C10B  F0 51     BEQ  A:00 X:00 Y:00 P:26 SP:82
C15E  4C 5B C3  JMP  A:00 X:00 Y:00 P:26 SP:82
C35B  20 1F C4  JSR  A:00 X:00 Y:00 P:26 SP:82
C41F  AD 29 03  LDA  A:00 X:00 Y:00 P:26 SP:80
C422  85 1F     STA  A:00 X:00 Y:00 P:26 SP:80
C424  A5 B9     LDA  A:00 X:00 Y:00 P:26 SP:80
C426  4C 30 C4  JMP  A:00 X:00 Y:00 P:26 SP:80
C430  38        SEC  A:00 X:00 Y:00 P:26 SP:80
C431  E5 1F     SBC  A:00 X:00 Y:00 P:27 SP:80
C433  10 07     BPL  A:00 X:00 Y:00 P:27 SP:80
C43C  C9 05     CMP  A:00 X:00 Y:00 P:27 SP:80
C43E  B0 03     BCS  A:00 X:00 Y:00 P:A4 SP:80
C440  A0 02     LDY  A:00 X:00 Y:00 P:A4 SP:80
C442  60        RTS  A:00 X:00 Y:02 P:24 SP:80
C35E  A5 10     LDA  A:00 X:00 Y:02 P:24 SP:82
C360  29 03     AND  A:00 X:00 Y:02 P:26 SP:82
C362  88        DEY  A:00 X:00 Y:02 P:26 SP:82
C363  F0 11     BEQ  A:00 X:00 Y:01 P:24 SP:82
C365  C9 02     CMP  A:00 X:00 Y:01 P:24 SP:82
C367  D0 11     BNE  A:00 X:00 Y:01 P:A4 SP:82
C37A  4C A8 C3  JMP  A:00 X:00 Y:01 P:A4 SP:82
C3A8  A0 00     LDY  A:00 X:00 Y:01 P:A4 SP:82
C3AA  84 C1     STY  A:00 X:00 Y:00 P:26 SP:82
C3AC  8C 31 03  STY  A:00 X:00 Y:00 P:26 SP:82
C3AF  C8        INY  A:00 X:00 Y:00 P:26 SP:82
C3B0  8C FF 05  STY  A:00 X:00 Y:01 P:24 SP:82
C3B3  A4 BB     LDY  A:00 X:00 Y:01 P:24 SP:82
C3B5  D0 02     BNE  A:00 X:00 Y:00 P:26 SP:82
C3B7  85 BB     STA  A:00 X:00 Y:00 P:26 SP:82
C3B9  AC 2B 03  LDY  A:00 X:00 Y:00 P:26 SP:82
C3BC  D0 03     BNE  A:00 X:00 Y:00 P:26 SP:82
C3BE  8D 2B 03  STA  A:00 X:00 Y:00 P:26 SP:82
C3C1  60        RTS  A:00 X:00 Y:00 P:26 SP:82
3601  00 A0     BRK  A:00 X:00 Y:00 P:26 SP:84
C000  D8        CLD  A:00 X:00 Y:00 P:26 SP:81
C001  78        SEI  A:00 X:00 Y:00 P:26 SP:81
C002  AD 02 20  LDA  A:00 X:00 Y:00 P:26 SP:81
READING OUT OF PPU MMIO RANGE!!!
C005  10 FB     BPL  A:00 X:00 Y:00 P:26 SP:81
C102  B1 29     LDA  A:00 X:00 Y:00 P:26 SP:81
C104  C0 D0     CPY  A:00 X:00 Y:00 P:26 SP:81
C106  48        PHA  A:00 X:00 Y:00 P:24 SP:81
C107  A5 B1     LDA  A:00 X:00 Y:00 P:24 SP:80
C109  29 03     AND  A:00 X:00 Y:00 P:26 SP:80
C10B  F0 51     BEQ  A:00 X:00 Y:00 P:26 SP:80
C15E  4C 5B C3  JMP  A:00 X:00 Y:00 P:26 SP:80
C35B  20 1F C4  JSR  A:00 X:00 Y:00 P:26 SP:80
C41F  AD 29 03  LDA  A:00 X:00 Y:00 P:26 SP:7E
C422  85 1F     STA  A:00 X:00 Y:00 P:26 SP:7E
C424  A5 B9     LDA  A:00 X:00 Y:00 P:26 SP:7E
C426  4C 30 C4  JMP  A:00 X:00 Y:00 P:26 SP:7E
C430  38        SEC  A:00 X:00 Y:00 P:26 SP:7E
C431  E5 1F     SBC  A:00 X:00 Y:00 P:27 SP:7E
C433  10 07     BPL  A:00 X:00 Y:00 P:27 SP:7E
C43C  C9 05     CMP  A:00 X:00 Y:00 P:27 SP:7E
C43E  B0 03     BCS  A:00 X:00 Y:00 P:A4 SP:7E
C440  A0 02     LDY  A:00 X:00 Y:00 P:A4 SP:7E
C442  60        RTS  A:00 X:00 Y:02 P:24 SP:7E
C35E  A5 10     LDA  A:00 X:00 Y:02 P:24 SP:80
C360  29 03     AND  A:00 X:00 Y:02 P:26 SP:80
C362  88        DEY  A:00 X:00 Y:02 P:26 SP:80
C363  F0 11     BEQ  A:00 X:00 Y:01 P:24 SP:80
C365  C9 02     CMP  A:00 X:00 Y:01 P:24 SP:80
C367  D0 11     BNE  A:00 X:00 Y:01 P:A4 SP:80
C37A  4C A8 C3  JMP  A:00 X:00 Y:01 P:A4 SP:80
C3A8  A0 00     LDY  A:00 X:00 Y:01 P:A4 SP:80
C3AA  84 C1     STY  A:00 X:00 Y:00 P:26 SP:80
C3AC  8C 31 03  STY  A:00 X:00 Y:00 P:26 SP:80
C3AF  C8        INY  A:00 X:00 Y:00 P:26 SP:80
C3B0  8C FF 05  STY  A:00 X:00 Y:01 P:24 SP:80
C3B3  A4 BB     LDY  A:00 X:00 Y:01 P:24 SP:80
C3B5  D0 02     BNE  A:00 X:00 Y:00 P:26 SP:80
C3B7  85 BB     STA  A:00 X:00 Y:00 P:26 SP:80
C3B9  AC 2B 03  LDY  A:00 X:00 Y:00 P:26 SP:80
C3BC  D0 03     BNE  A:00 X:00 Y:00 P:26 SP:80
C3BE  8D 2B 03  STA  A:00 X:00 Y:00 P:26 SP:80
C3C1  60        RTS  A:00 X:00 Y:00 P:26 SP:80
3601  A0 A0     LDY  A:00 X:00 Y:00 P:26 SP:82
3603  A0 AC     LDY  A:00 X:00 Y:A0 P:A4 SP:82
3605  AC AC 00  LDY  A:00 X:00 Y:AC P:A4 SP:82
3608  00 00     BRK  A:00 X:00 Y:00 P:26 SP:82
C000  D8        CLD  A:00 X:00 Y:00 P:26 SP:7F
C001  78        SEI  A:00 X:00 Y:00 P:26 SP:7F
C002  AD 02 20  LDA  A:00 X:00 Y:00 P:26 SP:7F
READING OUT OF PPU MMIO RANGE!!!
C005  10 FB     BPL  A:00 X:00 Y:00 P:26 SP:7F
C102  B1 29     LDA  A:00 X:00 Y:00 P:26 SP:7F
C104  C0 D0     CPY  A:00 X:00 Y:00 P:26 SP:7F
C106  48        PHA  A:00 X:00 Y:00 P:24 SP:7F
C107  A5 B1     LDA  A:00 X:00 Y:00 P:24 SP:7E
C109  29 03     AND  A:00 X:00 Y:00 P:26 SP:7E
C10B  F0 51     BEQ  A:00 X:00 Y:00 P:26 SP:7E
C15E  4C 5B C3  JMP  A:00 X:00 Y:00 P:26 SP:7E
C35B  20 1F C4  JSR  A:00 X:00 Y:00 P:26 SP:7E
C41F  AD 29 03  LDA  A:00 X:00 Y:00 P:26 SP:7C
C422  85 1F     STA  A:00 X:00 Y:00 P:26 SP:7C
C424  A5 B9     LDA  A:00 X:00 Y:00 P:26 SP:7C
C426  4C 30 C4  JMP  A:00 X:00 Y:00 P:26 SP:7C
C430  38        SEC  A:00 X:00 Y:00 P:26 SP:7C
C431  E5 1F     SBC  A:00 X:00 Y:00 P:27 SP:7C
C433  10 07     BPL  A:00 X:00 Y:00 P:27 SP:7C
C43C  C9 05     CMP  A:00 X:00 Y:00 P:27 SP:7C
C43E  B0 03     BCS  A:00 X:00 Y:00 P:A4 SP:7C
C440  A0 02     LDY  A:00 X:00 Y:00 P:A4 SP:7C
C442  60        RTS  A:00 X:00 Y:02 P:24 SP:7C
C35E  A5 10     LDA  A:00 X:00 Y:02 P:24 SP:7E
C360  29 03     AND  A:00 X:00 Y:02 P:26 SP:7E
C362  88        DEY  A:00 X:00 Y:02 P:26 SP:7E
C363  F0 11     BEQ  A:00 X:00 Y:01 P:24 SP:7E
C365  C9 02     CMP  A:00 X:00 Y:01 P:24 SP:7E
C367  D0 11     BNE  A:00 X:00 Y:01 P:A4 SP:7E
C37A  4C A8 C3  JMP  A:00 X:00 Y:01 P:A4 SP:7E
C3A8  A0 00     LDY  A:00 X:00 Y:01 P:A4 SP:7E
C3AA  84 C1     STY  A:00 X:00 Y:00 P:26 SP:7E
C3AC  8C 31 03  STY  A:00 X:00 Y:00 P:26 SP:7E
C3AF  C8        INY  A:00 X:00 Y:00 P:26 SP:7E
C3B0  8C FF 05  STY  A:00 X:00 Y:01 P:24 SP:7E
C3B3  A4 BB     LDY  A:00 X:00 Y:01 P:24 SP:7E
C3B5  D0 02     BNE  A:00 X:00 Y:00 P:26 SP:7E
C3B7  85 BB     STA  A:00 X:00 Y:00 P:26 SP:7E
C3B9  AC 2B 03  LDY  A:00 X:00 Y:00 P:26 SP:7E
C3BC  D0 03     BNE  A:00 X:00 Y:00 P:26 SP:7E
C3BE  8D 2B 03  STA  A:00 X:00 Y:00 P:26 SP:7E
C3C1  60        RTS  A:00 X:00 Y:00 P:26 SP:7E
3601  00 A0     BRK  A:00 X:00 Y:00 P:26 SP:80
C000  D8        CLD  A:00 X:00 Y:00 P:26 SP:7D
C001  78        SEI  A:00 X:00 Y:00 P:26 SP:7D
C002  AD 02 20  LDA  A:00 X:00 Y:00 P:26 SP:7D
READING OUT OF PPU MMIO RANGE!!!
C005  10 FB     BPL  A:00 X:00 Y:00 P:26 SP:7D
C102  B1 29     LDA  A:00 X:00 Y:00 P:26 SP:7D
C104  C0 D0     CPY  A:00 X:00 Y:00 P:26 SP:7D
C106  48        PHA  A:00 X:00 Y:00 P:24 SP:7D
C107  A5 B1     LDA  A:00 X:00 Y:00 P:24 SP:7C
C109  29 03     AND  A:00 X:00 Y:00 P:26 SP:7C
C10B  F0 51     BEQ  A:00 X:00 Y:00 P:26 SP:7C
C15E  4C 5B C3  JMP  A:00 X:00 Y:00 P:26 SP:7C
C35B  20 1F C4  JSR  A:00 X:00 Y:00 P:26 SP:7C
C41F  AD 29 03  LDA  A:00 X:00 Y:00 P:26 SP:7A
C422  85 1F     STA  A:00 X:00 Y:00 P:26 SP:7A
C424  A5 B9     LDA  A:00 X:00 Y:00 P:26 SP:7A
C426  4C 30 C4  JMP  A:00 X:00 Y:00 P:26 SP:7A
C430  38        SEC  A:00 X:00 Y:00 P:26 SP:7A
C431  E5 1F     SBC  A:00 X:00 Y:00 P:27 SP:7A
C433  10 07     BPL  A:00 X:00 Y:00 P:27 SP:7A
C43C  C9 05     CMP  A:00 X:00 Y:00 P:27 SP:7A
C43E  B0 03     BCS  A:00 X:00 Y:00 P:A4 SP:7A
C440  A0 02     LDY  A:00 X:00 Y:00 P:A4 SP:7A
C442  60        RTS  A:00 X:00 Y:02 P:24 SP:7A
C35E  A5 10     LDA  A:00 X:00 Y:02 P:24 SP:7C
C360  29 03     AND  A:00 X:00 Y:02 P:26 SP:7C
C362  88        DEY  A:00 X:00 Y:02 P:26 SP:7C
C363  F0 11     BEQ  A:00 X:00 Y:01 P:24 SP:7C
C365  C9 02     CMP  A:00 X:00 Y:01 P:24 SP:7C
C367  D0 11     BNE  A:00 X:00 Y:01 P:A4 SP:7C
C37A  4C A8 C3  JMP  A:00 X:00 Y:01 P:A4 SP:7C
C3A8  A0 00     LDY  A:00 X:00 Y:01 P:A4 SP:7C
C3AA  84 C1     STY  A:00 X:00 Y:00 P:26 SP:7C
C3AC  8C 31 03  STY  A:00 X:00 Y:00 P:26 SP:7C
C3AF  C8        INY  A:00 X:00 Y:00 P:26 SP:7C
C3B0  8C FF 05  STY  A:00 X:00 Y:01 P:24 SP:7C
C3B3  A4 BB     LDY  A:00 X:00 Y:01 P:24 SP:7C
C3B5  D0 02     BNE  A:00 X:00 Y:00 P:26 SP:7C
C3B7  85 BB     STA  A:00 X:00 Y:00 P:26 SP:7C
C3B9  AC 2B 03  LDY  A:00 X:00 Y:00 P:26 SP:7C
C3BC  D0 03     BNE  A:00 X:00 Y:00 P:26 SP:7C
C3BE  8D 2B 03  STA  A:00 X:00 Y:00 P:26 SP:7C
C3C1  60        RTS  A:00 X:00 Y:00 P:26 SP:7C
3601  A0 A0     LDY  A:00 X:00 Y:00 P:26 SP:7E
3603  A0 AC     LDY  A:00 X:00 Y:A0 P:A4 SP:7E
3605  AC AC 00  LDY  A:00 X:00 Y:AC P:A4 SP:7E
3608  00 00     BRK  A:00 X:00 Y:00 P:26 SP:7E
C000  D8        CLD  A:00 X:00 Y:00 P:26 SP:7B
C001  78        SEI  A:00 X:00 Y:00 P:26 SP:7B
C002  AD 02 20  LDA  A:00 X:00 Y:00 P:26 SP:7B
READING OUT OF PPU MMIO RANGE!!!
C005  10 FB     BPL  A:00 X:00 Y:00 P:26 SP:7B
C102  B1 29     LDA  A:00 X:00 Y:00 P:26 SP:7B
C104  C0 D0     CPY  A:00 X:00 Y:00 P:26 SP:7B
C106  48        PHA  A:00 X:00 Y:00 P:24 SP:7B
C107  A5 B1     LDA  A:00 X:00 Y:00 P:24 SP:7A
C109  29 03     AND  A:00 X:00 Y:00 P:26 SP:7A
C10B  F0 51     BEQ  A:00 X:00 Y:00 P:26 SP:7A
C15E  4C 5B C3  JMP  A:00 X:00 Y:00 P:26 SP:7A
C35B  20 1F C4  JSR  A:00 X:00 Y:00 P:26 SP:7A
C41F  AD 29 03  LDA  A:00 X:00 Y:00 P:26 SP:78
C422  85 1F     STA  A:00 X:00 Y:00 P:26 SP:78
C424  A5 B9     LDA  A:00 X:00 Y:00 P:26 SP:78
C426  4C 30 C4  JMP  A:00 X:00 Y:00 P:26 SP:78
C430  38        SEC  A:00 X:00 Y:00 P:26 SP:78
C431  E5 1F     SBC  A:00 X:00 Y:00 P:27 SP:78
C433  10 07     BPL  A:00 X:00 Y:00 P:27 SP:78
C43C  C9 05     CMP  A:00 X:00 Y:00 P:27 SP:78
C43E  B0 03     BCS  A:00 X:00 Y:00 P:A4 SP:78
C440  A0 02     LDY  A:00 X:00 Y:00 P:A4 SP:78
C442  60        RTS  A:00 X:00 Y:02 P:24 SP:78
C35E  A5 10     LDA  A:00 X:00 Y:02 P:24 SP:7A
C360  29 03     AND  A:00 X:00 Y:02 P:26 SP:7A
C362  88        DEY  A:00 X:00 Y:02 P:26 SP:7A
C363  F0 11     BEQ  A:00 X:00 Y:01 P:24 SP:7A
C365  C9 02     CMP  A:00 X:00 Y:01 P:24 SP:7A
C367  D0 11     BNE  A:00 X:00 Y:01 P:A4 SP:7A
C37A  4C A8 C3  JMP  A:00 X:00 Y:01 P:A4 SP:7A
C3A8  A0 00     LDY  A:00 X:00 Y:01 P:A4 SP:7A
C3AA  84 C1     STY  A:00 X:00 Y:00 P:26 SP:7A
C3AC  8C 31 03  STY  A:00 X:00 Y:00 P:26 SP:7A
C3AF  C8        INY  A:00 X:00 Y:00 P:26 SP:7A
C3B0  8C FF 05  STY  A:00 X:00 Y:01 P:24 SP:7A
C3B3  A4 BB     LDY  A:00 X:00 Y:01 P:24 SP:7A
C3B5  D0 02     BNE  A:00 X:00 Y:00 P:26 SP:7A
C3B7  85 BB     STA  A:00 X:00 Y:00 P:26 SP:7A
C3B9  AC 2B 03  LDY  A:00 X:00 Y:00 P:26 SP:7A
C3BC  D0 03     BNE  A:00 X:00 Y:00 P:26 SP:7A
C3BE  8D 2B 03  STA  A:00 X:00 Y:00 P:26 SP:7A
C3C1  60        RTS  A:00 X:00 Y:00 P:26 SP:7A
3601  00 A0     BRK  A:00 X:00 Y:00 P:26 SP:7C
C000  D8        CLD  A:00 X:00 Y:00 P:26 SP:79
C001  78        SEI  A:00 X:00 Y:00 P:26 SP:79
C002  AD 02 20  LDA  A:00 X:00 Y:00 P:26 SP:79
READING OUT OF PPU MMIO RANGE!!!
C005  10 FB     BPL  A:00 X:00 Y:00 P:26 SP:79
C102  B1 29     LDA  A:00 X:00 Y:00 P:26 SP:79
C104  C0 D0     CPY  A:00 X:00 Y:00 P:26 SP:79
C106  48        PHA  A:00 X:00 Y:00 P:24 SP:79
C107  A5 B1     LDA  A:00 X:00 Y:00 P:24 SP:78
C109  29 03     AND  A:00 X:00 Y:00 P:26 SP:78
C10B  F0 51     BEQ  A:00 X:00 Y:00 P:26 SP:78
C15E  4C 5B C3  JMP  A:00 X:00 Y:00 P:26 SP:78
C35B  20 1F C4  JSR  A:00 X:00 Y:00 P:26 SP:78
C41F  AD 29 03  LDA  A:00 X:00 Y:00 P:26 SP:76
C422  85 1F     STA  A:00 X:00 Y:00 P:26 SP:76
C424  A5 B9     LDA  A:00 X:00 Y:00 P:26 SP:76
C426  4C 30 C4  JMP  A:00 X:00 Y:00 P:26 SP:76
C430  38        SEC  A:00 X:00 Y:00 P:26 SP:76
C431  E5 1F     SBC  A:00 X:00 Y:00 P:27 SP:76
C433  10 07     BPL  A:00 X:00 Y:00 P:27 SP:76
C43C  C9 05     CMP  A:00 X:00 Y:00 P:27 SP:76
C43E  B0 03     BCS  A:00 X:00 Y:00 P:A4 SP:76
C440  A0 02     LDY  A:00 X:00 Y:00 P:A4 SP:76
C442  60        RTS  A:00 X:00 Y:02 P:24 SP:76
C35E  A5 10     LDA  A:00 X:00 Y:02 P:24 SP:78
C360  29 03     AND  A:00 X:00 Y:02 P:26 SP:78
C362  88        DEY  A:00 X:00 Y:02 P:26 SP:78
C363  F0 11     BEQ  A:00 X:00 Y:01 P:24 SP:78
C365  C9 02     CMP  A:00 X:00 Y:01 P:24 SP:78
C367  D0 11     BNE  A:00 X:00 Y:01 P:A4 SP:78
C37A  4C A8 C3  JMP  A:00 X:00 Y:01 P:A4 SP:78
C3A8  A0 00     LDY  A:00 X:00 Y:01 P:A4 SP:78
C3AA  84 C1     STY  A:00 X:00 Y:00 P:26 SP:78
C3AC  8C 31 03  STY  A:00 X:00 Y:00 P:26 SP:78
C3AF  C8        INY  A:00 X:00 Y:00 P:26 SP:78
C3B0  8C FF 05  STY  A:00 X:00 Y:01 P:24 SP:78
C3B3  A4 BB     LDY  A:00 X:00 Y:01 P:24 SP:78
C3B5  D0 02     BNE  A:00 X:00 Y:00 P:26 SP:78
C3B7  85 BB     STA  A:00 X:00 Y:00 P:26 SP:78
C3B9  AC 2B 03  LDY  A:00 X:00 Y:00 P:26 SP:78
C3BC  D0 03     BNE  A:00 X:00 Y:00 P:26 SP:78
C3BE  8D 2B 03  STA  A:00 X:00 Y:00 P:26 SP:78
C3C1  60        RTS  A:00 X:00 Y:00 P:26 SP:78
3601  A0 A0     LDY  A:00 X:00 Y:00 P:26 SP:7A
3603  A0 AC     LDY  A:00 X:00 Y:A0 P:A4 SP:7A
3605  AC AC 00  LDY  A:00 X:00 Y:AC P:A4 SP:7A
3608  00 00     BRK  A:00 X:00 Y:00 P:26 SP:7A
C000  D8        CLD  A:00 X:00 Y:00 P:26 SP:77
C001  78        SEI  A:00 X:00 Y:00 P:26 SP:77
C002  AD 02 20  LDA  A:00 X:00 Y:00 P:26 SP:77
READING OUT OF PPU MMIO RANGE!!!
C005  10 FB     BPL  A:00 X:00 Y:00 P:26 SP:77
C102  B1 29     LDA  A:00 X:00 Y:00 P:26 SP:77
C104  C0 D0     CPY  A:00 X:00 Y:00 P:26 SP:77
C106  48        PHA  A:00 X:00 Y:00 P:24 SP:77
C107  A5 B1     LDA  A:00 X:00 Y:00 P:24 SP:76
C109  29 03     AND  A:00 X:00 Y:00 P:26 SP:76
C10B  F0 51     BEQ  A:00 X:00 Y:00 P:26 SP:76
C15E  4C 5B C3  JMP  A:00 X:00 Y:00 P:26 SP:76
C35B  20 1F C4  JSR  A:00 X:00 Y:00 P:26 SP:76
C41F  AD 29 03  LDA  A:00 X:00 Y:00 P:26 SP:74
C422  85 1F     STA  A:00 X:00 Y:00 P:26 SP:74
C424  A5 B9     LDA  A:00 X:00 Y:00 P:26 SP:74
C426  4C 30 C4  JMP  A:00 X:00 Y:00 P:26 SP:74
C430  38        SEC  A:00 X:00 Y:00 P:26 SP:74
C431  E5 1F     SBC  A:00 X:00 Y:00 P:27 SP:74
C433  10 07     BPL  A:00 X:00 Y:00 P:27 SP:74
C43C  C9 05     CMP  A:00 X:00 Y:00 P:27 SP:74
C43E  B0 03     BCS  A:00 X:00 Y:00 P:A4 SP:74
C440  A0 02     LDY  A:00 X:00 Y:00 P:A4 SP:74
C442  60        RTS  A:00 X:00 Y:02 P:24 SP:74
C35E  A5 10     LDA  A:00 X:00 Y:02 P:24 SP:76
C360  29 03     AND  A:00 X:00 Y:02 P:26 SP:76
C362  88        DEY  A:00 X:00 Y:02 P:26 SP:76
C363  F0 11     BEQ  A:00 X:00 Y:01 P:24 SP:76
C365  C9 02     CMP  A:00 X:00 Y:01 P:24 SP:76
C367  D0 11     BNE  A:00 X:00 Y:01 P:A4 SP:76
C37A  4C A8 C3  JMP  A:00 X:00 Y:01 P:A4 SP:76
C3A8  A0 00     LDY  A:00 X:00 Y:01 P:A4 SP:76
C3AA  84 C1     STY  A:00 X:00 Y:00 P:26 SP:76
C3AC  8C 31 03  STY  A:00 X:00 Y:00 P:26 SP:76
C3AF  C8        INY  A:00 X:00 Y:00 P:26 SP:76
C3B0  8C FF 05  STY  A:00 X:00 Y:01 P:24 SP:76
C3B3  A4 BB     LDY  A:00 X:00 Y:01 P:24 SP:76
C3B5  D0 02     BNE  A:00 X:00 Y:00 P:26 SP:76
C3B7  85 BB     STA  A:00 X:00 Y:00 P:26 SP:76
C3B9  AC 2B 03  LDY  A:00 X:00 Y:00 P:26 SP:76
C3BC  D0 03     BNE  A:00 X:00 Y:00 P:26 SP:76
C3BE  8D 2B 03  STA  A:00 X:00 Y:00 P:26 SP:76
C3C1  60        RTS  A:00 X:00 Y:00 P:26 SP:76
3601  00 A0     BRK  A:00 X:00 Y:00 P:26 SP:78
C000  D8        CLD  A:00 X:00 Y:00 P:26 SP:75
C001  78        SEI  A:00 X:00 Y:00 P:26 SP:75
C002  AD 02 20  LDA  A:00 X:00 Y:00 P:26 SP:75
READING OUT OF PPU MMIO RANGE!!!
C005  10 FB     BPL  A:00 X:00 Y:00 P:26 SP:75
C102  B1 29     LDA  A:00 X:00 Y:00 P:26 SP:75
C104  C0 D0     CPY  A:00 X:00 Y:00 P:26 SP:75
C106  48        PHA  A:00 X:00 Y:00 P:24 SP:75
C107  A5 B1     LDA  A:00 X:00 Y:00 P:24 SP:74
C109  29 03     AND  A:00 X:00 Y:00 P:26 SP:74
C10B  F0 51     BEQ  A:00 X:00 Y:00 P:26 SP:74
C15E  4C 5B C3  JMP  A:00 X:00 Y:00 P:26 SP:74
C35B  20 1F C4  JSR  A:00 X:00 Y:00 P:26 SP:74
C41F  AD 29 03  LDA  A:00 X:00 Y:00 P:26 SP:72
C422  85 1F     STA  A:00 X:00 Y:00 P:26 SP:72
C424  A5 B9     LDA  A:00 X:00 Y:00 P:26 SP:72
C426  4C 30 C4  JMP  A:00 X:00 Y:00 P:26 SP:72
C430  38        SEC  A:00 X:00 Y:00 P:26 SP:72
C431  E5 1F     SBC  A:00 X:00 Y:00 P:27 SP:72
C433  10 07     BPL  A:00 X:00 Y:00 P:27 SP:72
C43C  C9 05     CMP  A:00 X:00 Y:00 P:27 SP:72
C43E  B0 03     BCS  A:00 X:00 Y:00 P:A4 SP:72
C440  A0 02     LDY  A:00 X:00 Y:00 P:A4 SP:72
C442  60        RTS  A:00 X:00 Y:02 P:24 SP:72
C35E  A5 10     LDA  A:00 X:00 Y:02 P:24 SP:74
C360  29 03     AND  A:00 X:00 Y:02 P:26 SP:74
C362  88        DEY  A:00 X:00 Y:02 P:26 SP:74
C363  F0 11     BEQ  A:00 X:00 Y:01 P:24 SP:74
C365  C9 02     CMP  A:00 X:00 Y:01 P:24 SP:74
C367  D0 11     BNE  A:00 X:00 Y:01 P:A4 SP:74
C37A  4C A8 C3  JMP  A:00 X:00 Y:01 P:A4 SP:74
C3A8  A0 00     LDY  A:00 X:00 Y:01 P:A4 SP:74
C3AA  84 C1     STY  A:00 X:00 Y:00 P:26 SP:74
C3AC  8C 31 03  STY  A:00 X:00 Y:00 P:26 SP:74
C3AF  C8        INY  A:00 X:00 Y:00 P:26 SP:74
C3B0  8C FF 05  STY  A:00 X:00 Y:01 P:24 SP:74
C3B3  A4 BB     LDY  A:00 X:00 Y:01 P:24 SP:74
C3B5  D0 02     BNE  A:00 X:00 Y:00 P:26 SP:74
C3B7  85 BB     STA  A:00 X:00 Y:00 P:26 SP:74
C3B9  AC 2B 03  LDY  A:00 X:00 Y:00 P:26 SP:74
C3BC  D0 03     BNE  A:00 X:00 Y:00 P:26 SP:74
C3BE  8D 2B 03  STA  A:00 X:00 Y:00 P:26 SP:74
C3C1  60        RTS  A:00 X:00 Y:00 P:26 SP:74
3601  A0 A0     LDY  A:00 X:00 Y:00 P:26 SP:76
3603  A0 AC     LDY  A:00 X:00 Y:A0 P:A4 SP:76
3605  AC AC 00  LDY  A:00 X:00 Y:AC P:A4 SP:76
3608  00 00     BRK  A:00 X:00 Y:00 P:26 SP:76
C000  D8        CLD  A:00 X:00 Y:00 P:26 SP:73
C001  78        SEI  A:00 X:00 Y:00 P:26 SP:73
C002  AD 02 20  LDA  A:00 X:00 Y:00 P:26 SP:73
READING OUT OF PPU MMIO RANGE!!!
C005  10 FB     BPL  A:00 X:00 Y:00 P:26 SP:73
C102  B1 29     LDA  A:00 X:00 Y:00 P:26 SP:73
C104  C0 D0     CPY  A:00 X:00 Y:00 P:26 SP:73
C106  48        PHA  A:00 X:00 Y:00 P:24 SP:73
C107  A5 B1     LDA  A:00 X:00 Y:00 P:24 SP:72
C109  29 03     AND  A:00 X:00 Y:00 P:26 SP:72
C10B  F0 51     BEQ  A:00 X:00 Y:00 P:26 SP:72
C15E  4C 5B C3  JMP  A:00 X:00 Y:00 P:26 SP:72
C35B  20 1F C4  JSR  A:00 X:00 Y:00 P:26 SP:72
C41F  AD 29 03  LDA  A:00 X:00 Y:00 P:26 SP:70
C422  85 1F     STA  A:00 X:00 Y:00 P:26 SP:70
C424  A5 B9     LDA  A:00 X:00 Y:00 P:26 SP:70
C426  4C 30 C4  JMP  A:00 X:00 Y:00 P:26 SP:70
C430  38        SEC  A:00 X:00 Y:00 P:26 SP:70
C431  E5 1F     SBC  A:00 X:00 Y:00 P:27 SP:70
C433  10 07     BPL  A:00 X:00 Y:00 P:27 SP:70
C43C  C9 05     CMP  A:00 X:00 Y:00 P:27 SP:70
C43E  B0 03     BCS  A:00 X:00 Y:00 P:A4 SP:70
C440  A0 02     LDY  A:00 X:00 Y:00 P:A4 SP:70
C442  60        RTS  A:00 X:00 Y:02 P:24 SP:70
C35E  A5 10     LDA  A:00 X:00 Y:02 P:24 SP:72
C360  29 03     AND  A:00 X:00 Y:02 P:26 SP:72
C362  88        DEY  A:00 X:00 Y:02 P:26 SP:72
C363  F0 11     BEQ  A:00 X:00 Y:01 P:24 SP:72
C365  C9 02     CMP  A:00 X:00 Y:01 P:24 SP:72
C367  D0 11     BNE  A:00 X:00 Y:01 P:A4 SP:72
C37A  4C A8 C3  JMP  A:00 X:00 Y:01 P:A4 SP:72
C3A8  A0 00     LDY  A:00 X:00 Y:01 P:A4 SP:72
C3AA  84 C1     STY  A:00 X:00 Y:00 P:26 SP:72
C3AC  8C 31 03  STY  A:00 X:00 Y:00 P:26 SP:72
C3AF  C8        INY  A:00 X:00 Y:00 P:26 SP:72
C3B0  8C FF 05  STY  A:00 X:00 Y:01 P:24 SP:72
C3B3  A4 BB     LDY  A:00 X:00 Y:01 P:24 SP:72
C3B5  D0 02     BNE  A:00 X:00 Y:00 P:26 SP:72
C3B7  85 BB     STA  A:00 X:00 Y:00 P:26 SP:72
C3B9  AC 2B 03  LDY  A:00 X:00 Y:00 P:26 SP:72
C3BC  D0 03     BNE  A:00 X:00 Y:00 P:26 SP:72
C3BE  8D 2B 03  STA  A:00 X:00 Y:00 P:26 SP:72
C3C1  60        RTS  A:00 X:00 Y:00 P:26 SP:72
3601  00 A0     BRK  A:00 X:00 Y:00 P:26 SP:74
C000  D8        CLD  A:00 X:00 Y:00 P:26 SP:71
C001  78        SEI  A:00 X:00 Y:00 P:26 SP:71
C002  AD 02 20  LDA  A:00 X:00 Y:00 P:26 SP:71
READING OUT OF PPU MMIO RANGE!!!
C005  10 FB     BPL  A:00 X:00 Y:00 P:26 SP:71
C102  B1 29     LDA  A:00 X:00 Y:00 P:26 SP:71
C104  C0 D0     CPY  A:00 X:00 Y:00 P:26 SP:71
C106  48        PHA  A:00 X:00 Y:00 P:24 SP:71
C107  A5 B1     LDA  A:00 X:00 Y:00 P:24 SP:70
C109  29 03     AND  A:00 X:00 Y:00 P:26 SP:70
C10B  F0 51     BEQ  A:00 X:00 Y:00 P:26 SP:70
C15E  4C 5B C3  JMP  A:00 X:00 Y:00 P:26 SP:70
C35B  20 1F C4  JSR  A:00 X:00 Y:00 P:26 SP:70
C41F  AD 29 03  LDA  A:00 X:00 Y:00 P:26 SP:6E
C422  85 1F     STA  A:00 X:00 Y:00 P:26 SP:6E
C424  A5 B9     LDA  A:00 X:00 Y:00 P:26 SP:6E
C426  4C 30 C4  JMP  A:00 X:00 Y:00 P:26 SP:6E
C430  38        SEC  A:00 X:00 Y:00 P:26 SP:6E
C431  E5 1F     SBC  A:00 X:00 Y:00 P:27 SP:6E
C433  10 07     BPL  A:00 X:00 Y:00 P:27 SP:6E
C43C  C9 05     CMP  A:00 X:00 Y:00 P:27 SP:6E
C43E  B0 03     BCS  A:00 X:00 Y:00 P:A4 SP:6E
C440  A0 02     LDY  A:00 X:00 Y:00 P:A4 SP:6E
C442  60        RTS  A:00 X:00 Y:02 P:24 SP:6E
C35E  A5 10     LDA  A:00 X:00 Y:02 P:24 SP:70
C360  29 03     AND  A:00 X:00 Y:02 P:26 SP:70
C362  88        DEY  A:00 X:00 Y:02 P:26 SP:70
C363  F0 11     BEQ  A:00 X:00 Y:01 P:24 SP:70
C365  C9 02     CMP  A:00 X:00 Y:01 P:24 SP:70
C367  D0 11     BNE  A:00 X:00 Y:01 P:A4 SP:70
C37A  4C A8 C3  JMP  A:00 X:00 Y:01 P:A4 SP:70
C3A8  A0 00     LDY  A:00 X:00 Y:01 P:A4 SP:70
C3AA  84 C1     STY  A:00 X:00 Y:00 P:26 SP:70
C3AC  8C 31 03  STY  A:00 X:00 Y:00 P:26 SP:70
C3AF  C8        INY  A:00 X:00 Y:00 P:26 SP:70
C3B0  8C FF 05  STY  A:00 X:00 Y:01 P:24 SP:70
C3B3  A4 BB     LDY  A:00 X:00 Y:01 P:24 SP:70
C3B5  D0 02     BNE  A:00 X:00 Y:00 P:26 SP:70
C3B7  85 BB     STA  A:00 X:00 Y:00 P:26 SP:70
C3B9  AC 2B 03  LDY  A:00 X:00 Y:00 P:26 SP:70
C3BC  D0 03     BNE  A:00 X:00 Y:00 P:26 SP:70
C3BE  8D 2B 03  STA  A:00 X:00 Y:00 P:26 SP:70
C3C1  60        RTS  A:00 X:00 Y:00 P:26 SP:70
3601  A0 A0     LDY  A:00 X:00 Y:00 P:26 SP:72
3603  A0 AC     LDY  A:00 X:00 Y:A0 P:A4 SP:72
3605  AC AC 00  LDY  A:00 X:00 Y:AC P:A4 SP:72
3608  00 00     BRK  A:00 X:00 Y:00 P:26 SP:72
C000  D8        CLD  A:00 X:00 Y:00 P:26 SP:6F
C001  78        SEI  A:00 X:00 Y:00 P:26 SP:6F
C002  AD 02 20  LDA  A:00 X:00 Y:00 P:26 SP:6F
READING OUT OF PPU MMIO RANGE!!!
C005  10 FB     BPL  A:00 X:00 Y:00 P:26 SP:6F
C102  B1 29     LDA  A:00 X:00 Y:00 P:26 SP:6F
C104  C0 D0     CPY  A:00 X:00 Y:00 P:26 SP:6F
C106  48        PHA  A:00 X:00 Y:00 P:24 SP:6F
C107  A5 B1     LDA  A:00 X:00 Y:00 P:24 SP:6E
C109  29 03     AND  A:00 X:00 Y:00 P:26 SP:6E
C10B  F0 51     BEQ  A:00 X:00 Y:00 P:26 SP:6E
C15E  4C 5B C3  JMP  A:00 X:00 Y:00 P:26 SP:6E
C35B  20 1F C4  JSR  A:00 X:00 Y:00 P:26 SP:6E
C41F  AD 29 03  LDA  A:00 X:00 Y:00 P:26 SP:6C
C422  85 1F     STA  A:00 X:00 Y:00 P:26 SP:6C
C424  A5 B9     LDA  A:00 X:00 Y:00 P:26 SP:6C
C426  4C 30 C4  JMP  A:00 X:00 Y:00 P:26 SP:6C
C430  38        SEC  A:00 X:00 Y:00 P:26 SP:6C
C431  E5 1F     SBC  A:00 X:00 Y:00 P:27 SP:6C
C433  10 07     BPL  A:00 X:00 Y:00 P:27 SP:6C
C43C  C9 05     CMP  A:00 X:00 Y:00 P:27 SP:6C
C43E  B0 03     BCS  A:00 X:00 Y:00 P:A4 SP:6C
C440  A0 02     LDY  A:00 X:00 Y:00 P:A4 SP:6C
C442  60        RTS  A:00 X:00 Y:02 P:24 SP:6C
C35E  A5 10     LDA  A:00 X:00 Y:02 P:24 SP:6E
C360  29 03     AND  A:00 X:00 Y:02 P:26 SP:6E
C362  88        DEY  A:00 X:00 Y:02 P:26 SP:6E
C363  F0 11     BEQ  A:00 X:00 Y:01 P:24 SP:6E
C365  C9 02     CMP  A:00 X:00 Y:01 P:24 SP:6E
C367  D0 11     BNE  A:00 X:00 Y:01 P:A4 SP:6E
C37A  4C A8 C3  JMP  A:00 X:00 Y:01 P:A4 SP:6E
C3A8  A0 00     LDY  A:00 X:00 Y:01 P:A4 SP:6E
C3AA  84 C1     STY  A:00 X:00 Y:00 P:26 SP:6E
C3AC  8C 31 03  STY  A:00 X:00 Y:00 P:26 SP:6E
C3AF  C8        INY  A:00 X:00 Y:00 P:26 SP:6E
C3B0  8C FF 05  STY  A:00 X:00 Y:01 P:24 SP:6E
C3B3  A4 BB     LDY  A:00 X:00 Y:01 P:24 SP:6E
C3B5  D0 02     BNE  A:00 X:00 Y:00 P:26 SP:6E
C3B7  85 BB     STA  A:00 X:00 Y:00 P:26 SP:6E
C3B9  AC 2B 03  LDY  A:00 X:00 Y:00 P:26 SP:6E
C3BC  D0 03     BNE  A:00 X:00 Y:00 P:26 SP:6E
C3BE  8D 2B 03  STA  A:00 X:00 Y:00 P:26 SP:6E
C3C1  60        RTS  A:00 X:00 Y:00 P:26 SP:6E
3601  00 A0     BRK  A:00 X:00 Y:00 P:26 SP:70
C000  D8        CLD  A:00 X:00 Y:00 P:26 SP:6D
C001  78        SEI  A:00 X:00 Y:00 P:26 SP:6D
C002  AD 02 20  LDA  A:00 X:00 Y:00 P:26 SP:6D
READING OUT OF PPU MMIO RANGE!!!
C005  10 FB     BPL  A:00 X:00 Y:00 P:26 SP:6D
C102  B1 29     LDA  A:00 X:00 Y:00 P:26 SP:6D
C104  C0 D0     CPY  A:00 X:00 Y:00 P:26 SP:6D
C106  48        PHA  A:00 X:00 Y:00 P:24 SP:6D
C107  A5 B1     LDA  A:00 X:00 Y:00 P:24 SP:6C
C109  29 03     AND  A:00 X:00 Y:00 P:26 SP:6C
C10B  F0 51     BEQ  A:00 X:00 Y:00 P:26 SP:6C
C15E  4C 5B C3  JMP  A:00 X:00 Y:00 P:26 SP:6C
C35B  20 1F C4  JSR  A:00 X:00 Y:00 P:26 SP:6C
C41F  AD 29 03  LDA  A:00 X:00 Y:00 P:26 SP:6A
C422  85 1F     STA  A:00 X:00 Y:00 P:26 SP:6A
C424  A5 B9     LDA  A:00 X:00 Y:00 P:26 SP:6A
C426  4C 30 C4  JMP  A:00 X:00 Y:00 P:26 SP:6A
C430  38        SEC  A:00 X:00 Y:00 P:26 SP:6A
C431  E5 1F     SBC  A:00 X:00 Y:00 P:27 SP:6A
C433  10 07     BPL  A:00 X:00 Y:00 P:27 SP:6A
C43C  C9 05     CMP  A:00 X:00 Y:00 P:27 SP:6A
C43E  B0 03     BCS  A:00 X:00 Y:00 P:A4 SP:6A
C440  A0 02     LDY  A:00 X:00 Y:00 P:A4 SP:6A
C442  60        RTS  A:00 X:00 Y:02 P:24 SP:6A
C35E  A5 10     LDA  A:00 X:00 Y:02 P:24 SP:6C
C360  29 03     AND  A:00 X:00 Y:02 P:26 SP:6C
C362  88        DEY  A:00 X:00 Y:02 P:26 SP:6C
C363  F0 11     BEQ  A:00 X:00 Y:01 P:24 SP:6C
C365  C9 02     CMP  A:00 X:00 Y:01 P:24 SP:6C
C367  D0 11     BNE  A:00 X:00 Y:01 P:A4 SP:6C
C37A  4C A8 C3  JMP  A:00 X:00 Y:01 P:A4 SP:6C
C3A8  A0 00     LDY  A:00 X:00 Y:01 P:A4 SP:6C
C3AA  84 C1     STY  A:00 X:00 Y:00 P:26 SP:6C
C3AC  8C 31 03  STY  A:00 X:00 Y:00 P:26 SP:6C
C3AF  C8        INY  A:00 X:00 Y:00 P:26 SP:6C
C3B0  8C FF 05  STY  A:00 X:00 Y:01 P:24 SP:6C
C3B3  A4 BB     LDY  A:00 X:00 Y:01 P:24 SP:6C
C3B5  D0 02     BNE  A:00 X:00 Y:00 P:26 SP:6C
C3B7  85 BB     STA  A:00 X:00 Y:00 P:26 SP:6C
C3B9  AC 2B 03  LDY  A:00 X:00 Y:00 P:26 SP:6C
C3BC  D0 03     BNE  A:00 X:00 Y:00 P:26 SP:6C
C3BE  8D 2B 03  STA  A:00 X:00 Y:00 P:26 SP:6C
C3C1  60        RTS  A:00 X:00 Y:00 P:26 SP:6C
3601  A0 A0     LDY  A:00 X:00 Y:00 P:26 SP:6E
3603  A0 AC     LDY  A:00 X:00 Y:A0 P:A4 SP:6E
3605  AC AC 00  LDY  A:00 X:00 Y:AC P:A4 SP:6E
3608  00 00     BRK  A:00 X:00 Y:00 P:26 SP:6E
C000  D8        CLD  A:00 X:00 Y:00 P:26 SP:6B
C001  78        SEI  A:00 X:00 Y:00 P:26 SP:6B
C002  AD 02 20  LDA  A:00 X:00 Y:00 P:26 SP:6B
READING OUT OF PPU MMIO RANGE!!!
C005  10 FB     BPL  A:00 X:00 Y:00 P:26 SP:6B
C102  B1 29     LDA  A:00 X:00 Y:00 P:26 SP:6B
C104  C0 D0     CPY  A:00 X:00 Y:00 P:26 SP:6B
C106  48        PHA  A:00 X:00 Y:00 P:24 SP:6B
C107  A5 B1     LDA  A:00 X:00 Y:00 P:24 SP:6A
C109  29 03     AND  A:00 X:00 Y:00 P:26 SP:6A
C10B  F0 51     BEQ  A:00 X:00 Y:00 P:26 SP:6A
C15E  4C 5B C3  JMP  A:00 X:00 Y:00 P:26 SP:6A
C35B  20 1F C4  JSR  A:00 X:00 Y:00 P:26 SP:6A
C41F  AD 29 03  LDA  A:00 X:00 Y:00 P:26 SP:68
C422  85 1F     STA  A:00 X:00 Y:00 P:26 SP:68
C424  A5 B9     LDA  A:00 X:00 Y:00 P:26 SP:68
C426  4C 30 C4  JMP  A:00 X:00 Y:00 P:26 SP:68
C430  38        SEC  A:00 X:00 Y:00 P:26 SP:68
C431  E5 1F     SBC  A:00 X:00 Y:00 P:27 SP:68
C433  10 07     BPL  A:00 X:00 Y:00 P:27 SP:68
C43C  C9 05     CMP  A:00 X:00 Y:00 P:27 SP:68
C43E  B0 03     BCS  A:00 X:00 Y:00 P:A4 SP:68
C440  A0 02     LDY  A:00 X:00 Y:00 P:A4 SP:68
C442  60        RTS  A:00 X:00 Y:02 P:24 SP:68
C35E  A5 10     LDA  A:00 X:00 Y:02 P:24 SP:6A
C360  29 03     AND  A:00 X:00 Y:02 P:26 SP:6A
C362  88        DEY  A:00 X:00 Y:02 P:26 SP:6A
C363  F0 11     BEQ  A:00 X:00 Y:01 P:24 SP:6A
C365  C9 02     CMP  A:00 X:00 Y:01 P:24 SP:6A
C367  D0 11     BNE  A:00 X:00 Y:01 P:A4 SP:6A
C37A  4C A8 C3  JMP  A:00 X:00 Y:01 P:A4 SP:6A
C3A8  A0 00     LDY  A:00 X:00 Y:01 P:A4 SP:6A
C3AA  84 C1     STY  A:00 X:00 Y:00 P:26 SP:6A
C3AC  8C 31 03  STY  A:00 X:00 Y:00 P:26 SP:6A
C3AF  C8        INY  A:00 X:00 Y:00 P:26 SP:6A
C3B0  8C FF 05  STY  A:00 X:00 Y:01 P:24 SP:6A
C3B3  A4 BB     LDY  A:00 X:00 Y:01 P:24 SP:6A
C3B5  D0 02     BNE  A:00 X:00 Y:00 P:26 SP:6A
C3B7  85 BB     STA  A:00 X:00 Y:00 P:26 SP:6A
C3B9  AC 2B 03  LDY  A:00 X:00 Y:00 P:26 SP:6A
C3BC  D0 03     BNE  A:00 X:00 Y:00 P:26 SP:6A
C3BE  8D 2B 03  STA  A:00 X:00 Y:00 P:26 SP:6A
C3C1  60        RTS  A:00 X:00 Y:00 P:26 SP:6A
3601  00 A0     BRK  A:00 X:00 Y:00 P:26 SP:6C
C000  D8        CLD  A:00 X:00 Y:00 P:26 SP:69
C001  78        SEI  A:00 X:00 Y:00 P:26 SP:69
C002  AD 02 20  LDA  A:00 X:00 Y:00 P:26 SP:69
READING OUT OF PPU MMIO RANGE!!!
C005  10 FB     BPL  A:00 X:00 Y:00 P:26 SP:69
C102  B1 29     LDA  A:00 X:00 Y:00 P:26 SP:69
C104  C0 D0     CPY  A:00 X:00 Y:00 P:26 SP:69
C106  48        PHA  A:00 X:00 Y:00 P:24 SP:69
C107  A5 B1     LDA  A:00 X:00 Y:00 P:24 SP:68
C109  29 03     AND  A:00 X:00 Y:00 P:26 SP:68
C10B  F0 51     BEQ  A:00 X:00 Y:00 P:26 SP:68
C15E  4C 5B C3  JMP  A:00 X:00 Y:00 P:26 SP:68
C35B  20 1F C4  JSR  A:00 X:00 Y:00 P:26 SP:68
C41F  AD 29 03  LDA  A:00 X:00 Y:00 P:26 SP:66
C422  85 1F     STA  A:00 X:00 Y:00 P:26 SP:66
C424  A5 B9     LDA  A:00 X:00 Y:00 P:26 SP:66
C426  4C 30 C4  JMP  A:00 X:00 Y:00 P:26 SP:66
C430  38        SEC  A:00 X:00 Y:00 P:26 SP:66
C431  E5 1F     SBC  A:00 X:00 Y:00 P:27 SP:66
C433  10 07     BPL  A:00 X:00 Y:00 P:27 SP:66
C43C  C9 05     CMP  A:00 X:00 Y:00 P:27 SP:66
C43E  B0 03     BCS  A:00 X:00 Y:00 P:A4 SP:66
C440  A0 02     LDY  A:00 X:00 Y:00 P:A4 SP:66
C442  60        RTS  A:00 X:00 Y:02 P:24 SP:66
C35E  A5 10     LDA  A:00 X:00 Y:02 P:24 SP:68
C360  29 03     AND  A:00 X:00 Y:02 P:26 SP:68
C362  88        DEY  A:00 X:00 Y:02 P:26 SP:68
C363  F0 11     BEQ  A:00 X:00 Y:01 P:24 SP:68
C365  C9 02     CMP  A:00 X:00 Y:01 P:24 SP:68
C367  D0 11     BNE  A:00 X:00 Y:01 P:A4 SP:68
C37A  4C A8 C3  JMP  A:00 X:00 Y:01 P:A4 SP:68
C3A8  A0 00     LDY  A:00 X:00 Y:01 P:A4 SP:68
C3AA  84 C1     STY  A:00 X:00 Y:00 P:26 SP:68
C3AC  8C 31 03  STY  A:00 X:00 Y:00 P:26 SP:68
C3AF  C8        INY  A:00 X:00 Y:00 P:26 SP:68
C3B0  8C FF 05  STY  A:00 X:00 Y:01 P:24 SP:68
C3B3  A4 BB     LDY  A:00 X:00 Y:01 P:24 SP:68
C3B5  D0 02     BNE  A:00 X:00 Y:00 P:26 SP:68
C3B7  85 BB     STA  A:00 X:00 Y:00 P:26 SP:68
C3B9  AC 2B 03  LDY  A:00 X:00 Y:00 P:26 SP:68
C3BC  D0 03     BNE  A:00 X:00 Y:00 P:26 SP:68
C3BE  8D 2B 03  STA  A:00 X:00 Y:00 P:26 SP:68
C3C1  60        RTS  A:00 X:00 Y:00 P:26 SP:68
3601  A0 A0     LDY  A:00 X:00 Y:00 P:26 SP:6A
3603  A0 AC     LDY  A:00 X:00 Y:A0 P:A4 SP:6A
3605  AC AC 00  LDY  A:00 X:00 Y:AC P:A4 SP:6A
3608  00 00     BRK  A:00 X:00 Y:00 P:26 SP:6A
C000  D8        CLD  A:00 X:00 Y:00 P:26 SP:67
C001  78        SEI  A:00 X:00 Y:00 P:26 SP:67
C002  AD 02 20  LDA  A:00 X:00 Y:00 P:26 SP:67
READING OUT OF PPU MMIO RANGE!!!
C005  10 FB     BPL  A:00 X:00 Y:00 P:26 SP:67
C102  B1 29     LDA  A:00 X:00 Y:00 P:26 SP:67
C104  C0 D0     CPY  A:00 X:00 Y:00 P:26 SP:67
C106  48        PHA  A:00 X:00 Y:00 P:24 SP:67
C107  A5 B1     LDA  A:00 X:00 Y:00 P:24 SP:66
C109  29 03     AND  A:00 X:00 Y:00 P:26 SP:66
C10B  F0 51     BEQ  A:00 X:00 Y:00 P:26 SP:66
C15E  4C 5B C3  JMP  A:00 X:00 Y:00 P:26 SP:66
C35B  20 1F C4  JSR  A:00 X:00 Y:00 P:26 SP:66
C41F  AD 29 03  LDA  A:00 X:00 Y:00 P:26 SP:64
C422  85 1F     STA  A:00 X:00 Y:00 P:26 SP:64
C424  A5 B9     LDA  A:00 X:00 Y:00 P:26 SP:64
C426  4C 30 C4  JMP  A:00 X:00 Y:00 P:26 SP:64
C430  38        SEC  A:00 X:00 Y:00 P:26 SP:64
C431  E5 1F     SBC  A:00 X:00 Y:00 P:27 SP:64
C433  10 07     BPL  A:00 X:00 Y:00 P:27 SP:64
C43C  C9 05     CMP  A:00 X:00 Y:00 P:27 SP:64
C43E  B0 03     BCS  A:00 X:00 Y:00 P:A4 SP:64
C440  A0 02     LDY  A:00 X:00 Y:00 P:A4 SP:64
C442  60        RTS  A:00 X:00 Y:02 P:24 SP:64
C35E  A5 10     LDA  A:00 X:00 Y:02 P:24 SP:66
C360  29 03     AND  A:00 X:00 Y:02 P:26 SP:66
C362  88        DEY  A:00 X:00 Y:02 P:26 SP:66
C363  F0 11     BEQ  A:00 X:00 Y:01 P:24 SP:66
C365  C9 02     CMP  A:00 X:00 Y:01 P:24 SP:66
C367  D0 11     BNE  A:00 X:00 Y:01 P:A4 SP:66
C37A  4C A8 C3  JMP  A:00 X:00 Y:01 P:A4 SP:66
C3A8  A0 00     LDY  A:00 X:00 Y:01 P:A4 SP:66
C3AA  84 C1     STY  A:00 X:00 Y:00 P:26 SP:66
C3AC  8C 31 03  STY  A:00 X:00 Y:00 P:26 SP:66
C3AF  C8        INY  A:00 X:00 Y:00 P:26 SP:66
C3B0  8C FF 05  STY  A:00 X:00 Y:01 P:24 SP:66
C3B3  A4 BB     LDY  A:00 X:00 Y:01 P:24 SP:66
C3B5  D0 02     BNE  A:00 X:00 Y:00 P:26 SP:66
C3B7  85 BB     STA  A:00 X:00 Y:00 P:26 SP:66
C3B9  AC 2B 03  LDY  A:00 X:00 Y:00 P:26 SP:66
C3BC  D0 03     BNE  A:00 X:00 Y:00 P:26 SP:66
C3BE  8D 2B 03  STA  A:00 X:00 Y:00 P:26 SP:66
C3C1  60        RTS  A:00 X:00 Y:00 P:26 SP:66
3601  00 A0     BRK  A:00 X:00 Y:00 P:26 SP:68
C000  D8        CLD  A:00 X:00 Y:00 P:26 SP:65
C001  78        SEI  A:00 X:00 Y:00 P:26 SP:65
C002  AD 02 20  LDA  A:00 X:00 Y:00 P:26 SP:65
READING OUT OF PPU MMIO RANGE!!!
C005  10 FB     BPL  A:00 X:00 Y:00 P:26 SP:65
C102  B1 29     LDA  A:00 X:00 Y:00 P:26 SP:65
C104  C0 D0     CPY  A:00 X:00 Y:00 P:26 SP:65
C106  48        PHA  A:00 X:00 Y:00 P:24 SP:65
C107  A5 B1     LDA  A:00 X:00 Y:00 P:24 SP:64
C109  29 03     AND  A:00 X:00 Y:00 P:26 SP:64
C10B  F0 51     BEQ  A:00 X:00 Y:00 P:26 SP:64
C15E  4C 5B C3  JMP  A:00 X:00 Y:00 P:26 SP:64
C35B  20 1F C4  JSR  A:00 X:00 Y:00 P:26 SP:64
C41F  AD 29 03  LDA  A:00 X:00 Y:00 P:26 SP:62
C422  85 1F     STA  A:00 X:00 Y:00 P:26 SP:62
C424  A5 B9     LDA  A:00 X:00 Y:00 P:26 SP:62
C426  4C 30 C4  JMP  A:00 X:00 Y:00 P:26 SP:62
C430  38        SEC  A:00 X:00 Y:00 P:26 SP:62
C431  E5 1F     SBC  A:00 X:00 Y:00 P:27 SP:62
C433  10 07     BPL  A:00 X:00 Y:00 P:27 SP:62
C43C  C9 05     CMP  A:00 X:00 Y:00 P:27 SP:62
C43E  B0 03     BCS  A:00 X:00 Y:00 P:A4 SP:62
C440  A0 02     LDY  A:00 X:00 Y:00 P:A4 SP:62
C442  60        RTS  A:00 X:00 Y:02 P:24 SP:62
C35E  A5 10     LDA  A:00 X:00 Y:02 P:24 SP:64
C360  29 03     AND  A:00 X:00 Y:02 P:26 SP:64
C362  88        DEY  A:00 X:00 Y:02 P:26 SP:64
C363  F0 11     BEQ  A:00 X:00 Y:01 P:24 SP:64
C365  C9 02     CMP  A:00 X:00 Y:01 P:24 SP:64
C367  D0 11     BNE  A:00 X:00 Y:01 P:A4 SP:64
C37A  4C A8 C3  JMP  A:00 X:00 Y:01 P:A4 SP:64
C3A8  A0 00     LDY  A:00 X:00 Y:01 P:A4 SP:64
C3AA  84 C1     STY  A:00 X:00 Y:00 P:26 SP:64
C3AC  8C 31 03  STY  A:00 X:00 Y:00 P:26 SP:64
C3AF  C8        INY  A:00 X:00 Y:00 P:26 SP:64
C3B0  8C FF 05  STY  A:00 X:00 Y:01 P:24 SP:64
C3B3  A4 BB     LDY  A:00 X:00 Y:01 P:24 SP:64
C3B5  D0 02     BNE  A:00 X:00 Y:00 P:26 SP:64
C3B7  85 BB     STA  A:00 X:00 Y:00 P:26 SP:64
C3B9  AC 2B 03  LDY  A:00 X:00 Y:00 P:26 SP:64
C3BC  D0 03     BNE  A:00 X:00 Y:00 P:26 SP:64
C3BE  8D 2B 03  STA  A:00 X:00 Y:00 P:26 SP:64
C3C1  60        RTS  A:00 X:00 Y:00 P:26 SP:64
3601  A0 A0     LDY  A:00 X:00 Y:00 P:26 SP:66
3603  A0 AC     LDY  A:00 X:00 Y:A0 P:A4 SP:66
3605  AC AC 00  LDY  A:00 X:00 Y:AC P:A4 SP:66
3608  00 00     BRK  A:00 X:00 Y:00 P:26 SP:66
C000  D8        CLD  A:00 X:00 Y:00 P:26 SP:63
C001  78        SEI  A:00 X:00 Y:00 P:26 SP:63
C002  AD 02 20  LDA  A:00 X:00 Y:00 P:26 SP:63
READING OUT OF PPU MMIO RANGE!!!
C005  10 FB     BPL  A:00 X:00 Y:00 P:26 SP:63
C102  B1 29     LDA  A:00 X:00 Y:00 P:26 SP:63
C104  C0 D0     CPY  A:00 X:00 Y:00 P:26 SP:63
C106  48        PHA  A:00 X:00 Y:00 P:24 SP:63
C107  A5 B1     LDA  A:00 X:00 Y:00 P:24 SP:62
C109  29 03     AND  A:00 X:00 Y:00 P:26 SP:62
C10B  F0 51     BEQ  A:00 X:00 Y:00 P:26 SP:62
C15E  4C 5B C3  JMP  A:00 X:00 Y:00 P:26 SP:62
C35B  20 1F C4  JSR  A:00 X:00 Y:00 P:26 SP:62
C41F  AD 29 03  LDA  A:00 X:00 Y:00 P:26 SP:60
C422  85 1F     STA  A:00 X:00 Y:00 P:26 SP:60
C424  A5 B9     LDA  A:00 X:00 Y:00 P:26 SP:60
C426  4C 30 C4  JMP  A:00 X:00 Y:00 P:26 SP:60
C430  38        SEC  A:00 X:00 Y:00 P:26 SP:60
C431  E5 1F     SBC  A:00 X:00 Y:00 P:27 SP:60
C433  10 07     BPL  A:00 X:00 Y:00 P:27 SP:60
C43C  C9 05     CMP  A:00 X:00 Y:00 P:27 SP:60
C43E  B0 03     BCS  A:00 X:00 Y:00 P:A4 SP:60
C440  A0 02     LDY  A:00 X:00 Y:00 P:A4 SP:60
C442  60        RTS  A:00 X:00 Y:02 P:24 SP:60
C35E  A5 10     LDA  A:00 X:00 Y:02 P:24 SP:62
C360  29 03     AND  A:00 X:00 Y:02 P:26 SP:62
C362  88        DEY  A:00 X:00 Y:02 P:26 SP:62
C363  F0 11     BEQ  A:00 X:00 Y:01 P:24 SP:62
C365  C9 02     CMP  A:00 X:00 Y:01 P:24 SP:62
C367  D0 11     BNE  A:00 X:00 Y:01 P:A4 SP:62
C37A  4C A8 C3  JMP  A:00 X:00 Y:01 P:A4 SP:62
C3A8  A0 00     LDY  A:00 X:00 Y:01 P:A4 SP:62
C3AA  84 C1     STY  A:00 X:00 Y:00 P:26 SP:62
C3AC  8C 31 03  STY  A:00 X:00 Y:00 P:26 SP:62
C3AF  C8        INY  A:00 X:00 Y:00 P:26 SP:62
C3B0  8C FF 05  STY  A:00 X:00 Y:01 P:24 SP:62
C3B3  A4 BB     LDY  A:00 X:00 Y:01 P:24 SP:62
C3B5  D0 02     BNE  A:00 X:00 Y:00 P:26 SP:62
C3B7  85 BB     STA  A:00 X:00 Y:00 P:26 SP:62
C3B9  AC 2B 03  LDY  A:00 X:00 Y:00 P:26 SP:62
C3BC  D0 03     BNE  A:00 X:00 Y:00 P:26 SP:62
C3BE  8D 2B 03  STA  A:00 X:00 Y:00 P:26 SP:62
C3C1  60        RTS  A:00 X:00 Y:00 P:26 SP:62
3601  00 A0     BRK  A:00 X:00 Y:00 P:26 SP:64
C000  D8        CLD  A:00 X:00 Y:00 P:26 SP:61
C001  78        SEI  A:00 X:00 Y:00 P:26 SP:61
C002  AD 02 20  LDA  A:00 X:00 Y:00 P:26 SP:61
READING OUT OF PPU MMIO RANGE!!!
C005  10 FB     BPL  A:00 X:00 Y:00 P:26 SP:61
C102  B1 29     LDA  A:00 X:00 Y:00 P:26 SP:61
C104  C0 D0     CPY  A:00 X:00 Y:00 P:26 SP:61
C106  48        PHA  A:00 X:00 Y:00 P:24 SP:61
C107  A5 B1     LDA  A:00 X:00 Y:00 P:24 SP:60
C109  29 03     AND  A:00 X:00 Y:00 P:26 SP:60
C10B  F0 51     BEQ  A:00 X:00 Y:00 P:26 SP:60
C15E  4C 5B C3  JMP  A:00 X:00 Y:00 P:26 SP:60
C35B  20 1F C4  JSR  A:00 X:00 Y:00 P:26 SP:60
C41F  AD 29 03  LDA  A:00 X:00 Y:00 P:26 SP:5E
C422  85 1F     STA  A:00 X:00 Y:00 P:26 SP:5E
C424  A5 B9     LDA  A:00 X:00 Y:00 P:26 SP:5E
C426  4C 30 C4  JMP  A:00 X:00 Y:00 P:26 SP:5E
C430  38        SEC  A:00 X:00 Y:00 P:26 SP:5E
C431  E5 1F     SBC  A:00 X:00 Y:00 P:27 SP:5E
C433  10 07     BPL  A:00 X:00 Y:00 P:27 SP:5E
C43C  C9 05     CMP  A:00 X:00 Y:00 P:27 SP:5E
C43E  B0 03     BCS  A:00 X:00 Y:00 P:A4 SP:5E
C440  A0 02     LDY  A:00 X:00 Y:00 P:A4 SP:5E
C442  60        RTS  A:00 X:00 Y:02 P:24 SP:5E
C35E  A5 10     LDA  A:00 X:00 Y:02 P:24 SP:60
C360  29 03     AND  A:00 X:00 Y:02 P:26 SP:60
C362  88        DEY  A:00 X:00 Y:02 P:26 SP:60
C363  F0 11     BEQ  A:00 X:00 Y:01 P:24 SP:60
C365  C9 02     CMP  A:00 X:00 Y:01 P:24 SP:60
C367  D0 11     BNE  A:00 X:00 Y:01 P:A4 SP:60
C37A  4C A8 C3  JMP  A:00 X:00 Y:01 P:A4 SP:60
C3A8  A0 00     LDY  A:00 X:00 Y:01 P:A4 SP:60
C3AA  84 C1     STY  A:00 X:00 Y:00 P:26 SP:60
C3AC  8C 31 03  STY  A:00 X:00 Y:00 P:26 SP:60
C3AF  C8        INY  A:00 X:00 Y:00 P:26 SP:60
C3B0  8C FF 05  STY  A:00 X:00 Y:01 P:24 SP:60
C3B3  A4 BB     LDY  A:00 X:00 Y:01 P:24 SP:60
C3B5  D0 02     BNE  A:00 X:00 Y:00 P:26 SP:60
C3B7  85 BB     STA  A:00 X:00 Y:00 P:26 SP:60
C3B9  AC 2B 03  LDY  A:00 X:00 Y:00 P:26 SP:60
C3BC  D0 03     BNE  A:00 X:00 Y:00 P:26 SP:60
C3BE  8D 2B 03  STA  A:00 X:00 Y:00 P:26 SP:60
C3C1  60        RTS  A:00 X:00 Y:00 P:26 SP:60
3601  A0 A0     LDY  A:00 X:00 Y:00 P:26 SP:62
3603  A0 AC     LDY  A:00 X:00 Y:A0 P:A4 SP:62
3605  AC AC 00  LDY  A:00 X:00 Y:AC P:A4 SP:62
3608  00 00     BRK  A:00 X:00 Y:00 P:26 SP:62
C000  D8        CLD  A:00 X:00 Y:00 P:26 SP:5F
C001  78        SEI  A:00 X:00 Y:00 P:26 SP:5F
C002  AD 02 20  LDA  A:00 X:00 Y:00 P:26 SP:5F
READING OUT OF PPU MMIO RANGE!!!
C005  10 FB     BPL  A:00 X:00 Y:00 P:26 SP:5F
C102  B1 29     LDA  A:00 X:00 Y:00 P:26 SP:5F
C104  C0 D0     CPY  A:00 X:00 Y:00 P:26 SP:5F
C106  48        PHA  A:00 X:00 Y:00 P:24 SP:5F
C107  A5 B1     LDA  A:00 X:00 Y:00 P:24 SP:5E
C109  29 03     AND  A:00 X:00 Y:00 P:26 SP:5E
C10B  F0 51     BEQ  A:00 X:00 Y:00 P:26 SP:5E
C15E  4C 5B C3  JMP  A:00 X:00 Y:00 P:26 SP:5E
C35B  20 1F C4  JSR  A:00 X:00 Y:00 P:26 SP:5E
C41F  AD 29 03  LDA  A:00 X:00 Y:00 P:26 SP:5C
C422  85 1F     STA  A:00 X:00 Y:00 P:26 SP:5C
C424  A5 B9     LDA  A:00 X:00 Y:00 P:26 SP:5C
C426  4C 30 C4  JMP  A:00 X:00 Y:00 P:26 SP:5C
C430  38        SEC  A:00 X:00 Y:00 P:26 SP:5C
C431  E5 1F     SBC  A:00 X:00 Y:00 P:27 SP:5C
C433  10 07     BPL  A:00 X:00 Y:00 P:27 SP:5C
C43C  C9 05     CMP  A:00 X:00 Y:00 P:27 SP:5C
C43E  B0 03     BCS  A:00 X:00 Y:00 P:A4 SP:5C
C440  A0 02     LDY  A:00 X:00 Y:00 P:A4 SP:5C
C442  60        RTS  A:00 X:00 Y:02 P:24 SP:5C
C35E  A5 10     LDA  A:00 X:00 Y:02 P:24 SP:5E
C360  29 03     AND  A:00 X:00 Y:02 P:26 SP:5E
C362  88        DEY  A:00 X:00 Y:02 P:26 SP:5E
C363  F0 11     BEQ  A:00 X:00 Y:01 P:24 SP:5E
C365  C9 02     CMP  A:00 X:00 Y:01 P:24 SP:5E
C367  D0 11     BNE  A:00 X:00 Y:01 P:A4 SP:5E
C37A  4C A8 C3  JMP  A:00 X:00 Y:01 P:A4 SP:5E
C3A8  A0 00     LDY  A:00 X:00 Y:01 P:A4 SP:5E
C3AA  84 C1     STY  A:00 X:00 Y:00 P:26 SP:5E
C3AC  8C 31 03  STY  A:00 X:00 Y:00 P:26 SP:5E
C3AF  C8        INY  A:00 X:00 Y:00 P:26 SP:5E
C3B0  8C FF 05  STY  A:00 X:00 Y:01 P:24 SP:5E
C3B3  A4 BB     LDY  A:00 X:00 Y:01 P:24 SP:5E
C3B5  D0 02     BNE  A:00 X:00 Y:00 P:26 SP:5E
C3B7  85 BB     STA  A:00 X:00 Y:00 P:26 SP:5E
C3B9  AC 2B 03  LDY  A:00 X:00 Y:00 P:26 SP:5E
C3BC  D0 03     BNE  A:00 X:00 Y:00 P:26 SP:5E
C3BE  8D 2B 03  STA  A:00 X:00 Y:00 P:26 SP:5E
C3C1  60        RTS  A:00 X:00 Y:00 P:26 SP:5E
3601  00 A0     BRK  A:00 X:00 Y:00 P:26 SP:60
C000  D8        CLD  A:00 X:00 Y:00 P:26 SP:5D
C001  78        SEI  A:00 X:00 Y:00 P:26 SP:5D
C002  AD 02 20  LDA  A:00 X:00 Y:00 P:26 SP:5D
READING OUT OF PPU MMIO RANGE!!!
C005  10 FB     BPL  A:00 X:00 Y:00 P:26 SP:5D
C102  B1 29     LDA  A:00 X:00 Y:00 P:26 SP:5D
C104  C0 D0     CPY  A:00 X:00 Y:00 P:26 SP:5D
C106  48        PHA  A:00 X:00 Y:00 P:24 SP:5D
C107  A5 B1     LDA  A:00 X:00 Y:00 P:24 SP:5C
C109  29 03     AND  A:00 X:00 Y:00 P:26 SP:5C
C10B  F0 51     BEQ  A:00 X:00 Y:00 P:26 SP:5C
C15E  4C 5B C3  JMP  A:00 X:00 Y:00 P:26 SP:5C
C35B  20 1F C4  JSR  A:00 X:00 Y:00 P:26 SP:5C
C41F  AD 29 03  LDA  A:00 X:00 Y:00 P:26 SP:5A
C422  85 1F     STA  A:00 X:00 Y:00 P:26 SP:5A
C424  A5 B9     LDA  A:00 X:00 Y:00 P:26 SP:5A
C426  4C 30 C4  JMP  A:00 X:00 Y:00 P:26 SP:5A
C430  38        SEC  A:00 X:00 Y:00 P:26 SP:5A
C431  E5 1F     SBC  A:00 X:00 Y:00 P:27 SP:5A
C433  10 07     BPL  A:00 X:00 Y:00 P:27 SP:5A
C43C  C9 05     CMP  A:00 X:00 Y:00 P:27 SP:5A
C43E  B0 03     BCS  A:00 X:00 Y:00 P:A4 SP:5A
C440  A0 02     LDY  A:00 X:00 Y:00 P:A4 SP:5A
C442  60        RTS  A:00 X:00 Y:02 P:24 SP:5A
C35E  A5 10     LDA  A:00 X:00 Y:02 P:24 SP:5C
C360  29 03     AND  A:00 X:00 Y:02 P:26 SP:5C
C362  88        DEY  A:00 X:00 Y:02 P:26 SP:5C
C363  F0 11     BEQ  A:00 X:00 Y:01 P:24 SP:5C
C365  C9 02     CMP  A:00 X:00 Y:01 P:24 SP:5C
C367  D0 11     BNE  A:00 X:00 Y:01 P:A4 SP:5C
C37A  4C A8 C3  JMP  A:00 X:00 Y:01 P:A4 SP:5C
C3A8  A0 00     LDY  A:00 X:00 Y:01 P:A4 SP:5C
C3AA  84 C1     STY  A:00 X:00 Y:00 P:26 SP:5C
C3AC  8C 31 03  STY  A:00 X:00 Y:00 P:26 SP:5C
C3AF  C8        INY  A:00 X:00 Y:00 P:26 SP:5C
C3B0  8C FF 05  STY  A:00 X:00 Y:01 P:24 SP:5C
C3B3  A4 BB     LDY  A:00 X:00 Y:01 P:24 SP:5C
C3B5  D0 02     BNE  A:00 X:00 Y:00 P:26 SP:5C
C3B7  85 BB     STA  A:00 X:00 Y:00 P:26 SP:5C
C3B9  AC 2B 03  LDY  A:00 X:00 Y:00 P:26 SP:5C
C3BC  D0 03     BNE  A:00 X:00 Y:00 P:26 SP:5C
C3BE  8D 2B 03  STA  A:00 X:00 Y:00 P:26 SP:5C
C3C1  60        RTS  A:00 X:00 Y:00 P:26 SP:5C
3601  A0 A0     LDY  A:00 X:00 Y:00 P:26 SP:5E
3603  A0 AC     LDY  A:00 X:00 Y:A0 P:A4 SP:5E
3605  AC AC 00  LDY  A:00 X:00 Y:AC P:A4 SP:5E
3608  00 00     BRK  A:00 X:00 Y:00 P:26 SP:5E
C000  D8        CLD  A:00 X:00 Y:00 P:26 SP:5B
C001  78        SEI  A:00 X:00 Y:00 P:26 SP:5B
C002  AD 02 20  LDA  A:00 X:00 Y:00 P:26 SP:5B
READING OUT OF PPU MMIO RANGE!!!
C005  10 FB     BPL  A:00 X:00 Y:00 P:26 SP:5B
C102  B1 29     LDA  A:00 X:00 Y:00 P:26 SP:5B
C104  C0 D0     CPY  A:00 X:00 Y:00 P:26 SP:5B
C106  48        PHA  A:00 X:00 Y:00 P:24 SP:5B
C107  A5 B1     LDA  A:00 X:00 Y:00 P:24 SP:5A
C109  29 03     AND  A:00 X:00 Y:00 P:26 SP:5A
C10B  F0 51     BEQ  A:00 X:00 Y:00 P:26 SP:5A
C15E  4C 5B C3  JMP  A:00 X:00 Y:00 P:26 SP:5A
C35B  20 1F C4  JSR  A:00 X:00 Y:00 P:26 SP:5A
C41F  AD 29 03  LDA  A:00 X:00 Y:00 P:26 SP:58
C422  85 1F     STA  A:00 X:00 Y:00 P:26 SP:58
C424  A5 B9     LDA  A:00 X:00 Y:00 P:26 SP:58
C426  4C 30 C4  JMP  A:00 X:00 Y:00 P:26 SP:58
C430  38        SEC  A:00 X:00 Y:00 P:26 SP:58
C431  E5 1F     SBC  A:00 X:00 Y:00 P:27 SP:58
C433  10 07     BPL  A:00 X:00 Y:00 P:27 SP:58
C43C  C9 05     CMP  A:00 X:00 Y:00 P:27 SP:58
C43E  B0 03     BCS  A:00 X:00 Y:00 P:A4 SP:58
C440  A0 02     LDY  A:00 X:00 Y:00 P:A4 SP:58
C442  60        RTS  A:00 X:00 Y:02 P:24 SP:58
C35E  A5 10     LDA  A:00 X:00 Y:02 P:24 SP:5A
C360  29 03     AND  A:00 X:00 Y:02 P:26 SP:5A
C362  88        DEY  A:00 X:00 Y:02 P:26 SP:5A
C363  F0 11     BEQ  A:00 X:00 Y:01 P:24 SP:5A
C365  C9 02     CMP  A:00 X:00 Y:01 P:24 SP:5A
C367  D0 11     BNE  A:00 X:00 Y:01 P:A4 SP:5A
C37A  4C A8 C3  JMP  A:00 X:00 Y:01 P:A4 SP:5A
C3A8  A0 00     LDY  A:00 X:00 Y:01 P:A4 SP:5A
C3AA  84 C1     STY  A:00 X:00 Y:00 P:26 SP:5A
C3AC  8C 31 03  STY  A:00 X:00 Y:00 P:26 SP:5A
C3AF  C8        INY  A:00 X:00 Y:00 P:26 SP:5A
C3B0  8C FF 05  STY  A:00 X:00 Y:01 P:24 SP:5A
C3B3  A4 BB     LDY  A:00 X:00 Y:01 P:24 SP:5A
C3B5  D0 02     BNE  A:00 X:00 Y:00 P:26 SP:5A
C3B7  85 BB     STA  A:00 X:00 Y:00 P:26 SP:5A
C3B9  AC 2B 03  LDY  A:00 X:00 Y:00 P:26 SP:5A
C3BC  D0 03     BNE  A:00 X:00 Y:00 P:26 SP:5A
C3BE  8D 2B 03  STA  A:00 X:00 Y:00 P:26 SP:5A
C3C1  60        RTS  A:00 X:00 Y:00 P:26 SP:5A
3601  00 A0     BRK  A:00 X:00 Y:00 P:26 SP:5C
C000  D8        CLD  A:00 X:00 Y:00 P:26 SP:59
C001  78        SEI  A:00 X:00 Y:00 P:26 SP:59
C002  AD 02 20  LDA  A:00 X:00 Y:00 P:26 SP:59
READING OUT OF PPU MMIO RANGE!!!
C005  10 FB     BPL  A:00 X:00 Y:00 P:26 SP:59
C102  B1 29     LDA  A:00 X:00 Y:00 P:26 SP:59
C104  C0 D0     CPY  A:00 X:00 Y:00 P:26 SP:59
C106  48        PHA  A:00 X:00 Y:00 P:24 SP:59
C107  A5 B1     LDA  A:00 X:00 Y:00 P:24 SP:58
C109  29 03     AND  A:00 X:00 Y:00 P:26 SP:58
C10B  F0 51     BEQ  A:00 X:00 Y:00 P:26 SP:58
C15E  4C 5B C3  JMP  A:00 X:00 Y:00 P:26 SP:58
C35B  20 1F C4  JSR  A:00 X:00 Y:00 P:26 SP:58
C41F  AD 29 03  LDA  A:00 X:00 Y:00 P:26 SP:56
C422  85 1F     STA  A:00 X:00 Y:00 P:26 SP:56
C424  A5 B9     LDA  A:00 X:00 Y:00 P:26 SP:56
C426  4C 30 C4  JMP  A:00 X:00 Y:00 P:26 SP:56
C430  38        SEC  A:00 X:00 Y:00 P:26 SP:56
C431  E5 1F     SBC  A:00 X:00 Y:00 P:27 SP:56
C433  10 07     BPL  A:00 X:00 Y:00 P:27 SP:56
C43C  C9 05     CMP  A:00 X:00 Y:00 P:27 SP:56
C43E  B0 03     BCS  A:00 X:00 Y:00 P:A4 SP:56
C440  A0 02     LDY  A:00 X:00 Y:00 P:A4 SP:56
C442  60        RTS  A:00 X:00 Y:02 P:24 SP:56
C35E  A5 10     LDA  A:00 X:00 Y:02 P:24 SP:58
C360  29 03     AND  A:00 X:00 Y:02 P:26 SP:58
C362  88        DEY  A:00 X:00 Y:02 P:26 SP:58
C363  F0 11     BEQ  A:00 X:00 Y:01 P:24 SP:58
C365  C9 02     CMP  A:00 X:00 Y:01 P:24 SP:58
C367  D0 11     BNE  A:00 X:00 Y:01 P:A4 SP:58
C37A  4C A8 C3  JMP  A:00 X:00 Y:01 P:A4 SP:58
C3A8  A0 00     LDY  A:00 X:00 Y:01 P:A4 SP:58
C3AA  84 C1     STY  A:00 X:00 Y:00 P:26 SP:58
C3AC  8C 31 03  STY  A:00 X:00 Y:00 P:26 SP:58
C3AF  C8        INY  A:00 X:00 Y:00 P:26 SP:58
C3B0  8C FF 05  STY  A:00 X:00 Y:01 P:24 SP:58
C3B3  A4 BB     LDY  A:00 X:00 Y:01 P:24 SP:58
C3B5  D0 02     BNE  A:00 X:00 Y:00 P:26 SP:58
C3B7  85 BB     STA  A:00 X:00 Y:00 P:26 SP:58
C3B9  AC 2B 03  LDY  A:00 X:00 Y:00 P:26 SP:58
C3BC  D0 03     BNE  A:00 X:00 Y:00 P:26 SP:58
C3BE  8D 2B 03  STA  A:00 X:00 Y:00 P:26 SP:58
C3C1  60        RTS  A:00 X:00 Y:00 P:26 SP:58
3601  A0 A0     LDY  A:00 X:00 Y:00 P:26 SP:5A
3603  A0 AC     LDY  A:00 X:00 Y:A0 P:A4 SP:5A
3605  AC AC 00  LDY  A:00 X:00 Y:AC P:A4 SP:5A
3608  00 00     BRK  A:00 X:00 Y:00 P:26 SP:5A
C000  D8        CLD  A:00 X:00 Y:00 P:26 SP:57
C001  78        SEI  A:00 X:00 Y:00 P:26 SP:57
C002  AD 02 20  LDA  A:00 X:00 Y:00 P:26 SP:57
READING OUT OF PPU MMIO RANGE!!!
C005  10 FB     BPL  A:00 X:00 Y:00 P:26 SP:57
C102  B1 29     LDA  A:00 X:00 Y:00 P:26 SP:57
C104  C0 D0     CPY  A:00 X:00 Y:00 P:26 SP:57
C106  48        PHA  A:00 X:00 Y:00 P:24 SP:57
C107  A5 B1     LDA  A:00 X:00 Y:00 P:24 SP:56
C109  29 03     AND  A:00 X:00 Y:00 P:26 SP:56
C10B  F0 51     BEQ  A:00 X:00 Y:00 P:26 SP:56
C15E  4C 5B C3  JMP  A:00 X:00 Y:00 P:26 SP:56
C35B  20 1F C4  JSR  A:00 X:00 Y:00 P:26 SP:56
C41F  AD 29 03  LDA  A:00 X:00 Y:00 P:26 SP:54
C422  85 1F     STA  A:00 X:00 Y:00 P:26 SP:54
C424  A5 B9     LDA  A:00 X:00 Y:00 P:26 SP:54
C426  4C 30 C4  JMP  A:00 X:00 Y:00 P:26 SP:54
C430  38        SEC  A:00 X:00 Y:00 P:26 SP:54
C431  E5 1F     SBC  A:00 X:00 Y:00 P:27 SP:54
C433  10 07     BPL  A:00 X:00 Y:00 P:27 SP:54
C43C  C9 05     CMP  A:00 X:00 Y:00 P:27 SP:54
C43E  B0 03     BCS  A:00 X:00 Y:00 P:A4 SP:54
C440  A0 02     LDY  A:00 X:00 Y:00 P:A4 SP:54
C442  60        RTS  A:00 X:00 Y:02 P:24 SP:54
C35E  A5 10     LDA  A:00 X:00 Y:02 P:24 SP:56
C360  29 03     AND  A:00 X:00 Y:02 P:26 SP:56
C362  88        DEY  A:00 X:00 Y:02 P:26 SP:56
C363  F0 11     BEQ  A:00 X:00 Y:01 P:24 SP:56
C365  C9 02     CMP  A:00 X:00 Y:01 P:24 SP:56
C367  D0 11     BNE  A:00 X:00 Y:01 P:A4 SP:56
C37A  4C A8 C3  JMP  A:00 X:00 Y:01 P:A4 SP:56
C3A8  A0 00     LDY  A:00 X:00 Y:01 P:A4 SP:56
C3AA  84 C1     STY  A:00 X:00 Y:00 P:26 SP:56
C3AC  8C 31 03  STY  A:00 X:00 Y:00 P:26 SP:56
C3AF  C8        INY  A:00 X:00 Y:00 P:26 SP:56
C3B0  8C FF 05  STY  A:00 X:00 Y:01 P:24 SP:56
C3B3  A4 BB     LDY  A:00 X:00 Y:01 P:24 SP:56
C3B5  D0 02     BNE  A:00 X:00 Y:00 P:26 SP:56
C3B7  85 BB     STA  A:00 X:00 Y:00 P:26 SP:56
C3B9  AC 2B 03  LDY  A:00 X:00 Y:00 P:26 SP:56
C3BC  D0 03     BNE  A:00 X:00 Y:00 P:26 SP:56
C3BE  8D 2B 03  STA  A:00 X:00 Y:00 P:26 SP:56
C3C1  60        RTS  A:00 X:00 Y:00 P:26 SP:56
3601  00 A0     BRK  A:00 X:00 Y:00 P:26 SP:58
C000  D8        CLD  A:00 X:00 Y:00 P:26 SP:55
C001  78        SEI  A:00 X:00 Y:00 P:26 SP:55
C002  AD 02 20  LDA  A:00 X:00 Y:00 P:26 SP:55
READING OUT OF PPU MMIO RANGE!!!
C005  10 FB     BPL  A:00 X:00 Y:00 P:26 SP:55
C102  B1 29     LDA  A:00 X:00 Y:00 P:26 SP:55
C104  C0 D0     CPY  A:00 X:00 Y:00 P:26 SP:55
C106  48        PHA  A:00 X:00 Y:00 P:24 SP:55
C107  A5 B1     LDA  A:00 X:00 Y:00 P:24 SP:54
C109  29 03     AND  A:00 X:00 Y:00 P:26 SP:54
C10B  F0 51     BEQ  A:00 X:00 Y:00 P:26 SP:54
C15E  4C 5B C3  JMP  A:00 X:00 Y:00 P:26 SP:54
C35B  20 1F C4  JSR  A:00 X:00 Y:00 P:26 SP:54
C41F  AD 29 03  LDA  A:00 X:00 Y:00 P:26 SP:52
C422  85 1F     STA  A:00 X:00 Y:00 P:26 SP:52
C424  A5 B9     LDA  A:00 X:00 Y:00 P:26 SP:52
C426  4C 30 C4  JMP  A:00 X:00 Y:00 P:26 SP:52
C430  38        SEC  A:00 X:00 Y:00 P:26 SP:52
C431  E5 1F     SBC  A:00 X:00 Y:00 P:27 SP:52
C433  10 07     BPL  A:00 X:00 Y:00 P:27 SP:52
C43C  C9 05     CMP  A:00 X:00 Y:00 P:27 SP:52
C43E  B0 03     BCS  A:00 X:00 Y:00 P:A4 SP:52
C440  A0 02     LDY  A:00 X:00 Y:00 P:A4 SP:52
C442  60        RTS  A:00 X:00 Y:02 P:24 SP:52
C35E  A5 10     LDA  A:00 X:00 Y:02 P:24 SP:54
C360  29 03     AND  A:00 X:00 Y:02 P:26 SP:54
C362  88        DEY  A:00 X:00 Y:02 P:26 SP:54
C363  F0 11     BEQ  A:00 X:00 Y:01 P:24 SP:54
C365  C9 02     CMP  A:00 X:00 Y:01 P:24 SP:54
C367  D0 11     BNE  A:00 X:00 Y:01 P:A4 SP:54
C37A  4C A8 C3  JMP  A:00 X:00 Y:01 P:A4 SP:54
C3A8  A0 00     LDY  A:00 X:00 Y:01 P:A4 SP:54
C3AA  84 C1     STY  A:00 X:00 Y:00 P:26 SP:54
C3AC  8C 31 03  STY  A:00 X:00 Y:00 P:26 SP:54
C3AF  C8        INY  A:00 X:00 Y:00 P:26 SP:54
C3B0  8C FF 05  STY  A:00 X:00 Y:01 P:24 SP:54
C3B3  A4 BB     LDY  A:00 X:00 Y:01 P:24 SP:54
C3B5  D0 02     BNE  A:00 X:00 Y:00 P:26 SP:54
C3B7  85 BB     STA  A:00 X:00 Y:00 P:26 SP:54
C3B9  AC 2B 03  LDY  A:00 X:00 Y:00 P:26 SP:54
C3BC  D0 03     BNE  A:00 X:00 Y:00 P:26 SP:54
C3BE  8D 2B 03  STA  A:00 X:00 Y:00 P:26 SP:54
C3C1  60        RTS  A:00 X:00 Y:00 P:26 SP:54
3601  A0 A0     LDY  A:00 X:00 Y:00 P:26 SP:56
3603  A0 AC     LDY  A:00 X:00 Y:A0 P:A4 SP:56
3605  AC AC 00  LDY  A:00 X:00 Y:AC P:A4 SP:56
3608  00 00     BRK  A:00 X:00 Y:00 P:26 SP:56
C000  D8        CLD  A:00 X:00 Y:00 P:26 SP:53
C001  78        SEI  A:00 X:00 Y:00 P:26 SP:53
C002  AD 02 20  LDA  A:00 X:00 Y:00 P:26 SP:53
READING OUT OF PPU MMIO RANGE!!!
C005  10 FB     BPL  A:00 X:00 Y:00 P:26 SP:53
C102  B1 29     LDA  A:00 X:00 Y:00 P:26 SP:53
C104  C0 D0     CPY  A:00 X:00 Y:00 P:26 SP:53
C106  48        PHA  A:00 X:00 Y:00 P:24 SP:53
C107  A5 B1     LDA  A:00 X:00 Y:00 P:24 SP:52
C109  29 03     AND  A:00 X:00 Y:00 P:26 SP:52
C10B  F0 51     BEQ  A:00 X:00 Y:00 P:26 SP:52
C15E  4C 5B C3  JMP  A:00 X:00 Y:00 P:26 SP:52
C35B  20 1F C4  JSR  A:00 X:00 Y:00 P:26 SP:52
C41F  AD 29 03  LDA  A:00 X:00 Y:00 P:26 SP:50
C422  85 1F     STA  A:00 X:00 Y:00 P:26 SP:50
C424  A5 B9     LDA  A:00 X:00 Y:00 P:26 SP:50
C426  4C 30 C4  JMP  A:00 X:00 Y:00 P:26 SP:50
C430  38        SEC  A:00 X:00 Y:00 P:26 SP:50
C431  E5 1F     SBC  A:00 X:00 Y:00 P:27 SP:50
C433  10 07     BPL  A:00 X:00 Y:00 P:27 SP:50
C43C  C9 05     CMP  A:00 X:00 Y:00 P:27 SP:50
C43E  B0 03     BCS  A:00 X:00 Y:00 P:A4 SP:50
C440  A0 02     LDY  A:00 X:00 Y:00 P:A4 SP:50
C442  60        RTS  A:00 X:00 Y:02 P:24 SP:50
C35E  A5 10     LDA  A:00 X:00 Y:02 P:24 SP:52
C360  29 03     AND  A:00 X:00 Y:02 P:26 SP:52
C362  88        DEY  A:00 X:00 Y:02 P:26 SP:52
C363  F0 11     BEQ  A:00 X:00 Y:01 P:24 SP:52
C365  C9 02     CMP  A:00 X:00 Y:01 P:24 SP:52
C367  D0 11     BNE  A:00 X:00 Y:01 P:A4 SP:52
C37A  4C A8 C3  JMP  A:00 X:00 Y:01 P:A4 SP:52
C3A8  A0 00     LDY  A:00 X:00 Y:01 P:A4 SP:52
C3AA  84 C1     STY  A:00 X:00 Y:00 P:26 SP:52
C3AC  8C 31 03  STY  A:00 X:00 Y:00 P:26 SP:52
C3AF  C8        INY  A:00 X:00 Y:00 P:26 SP:52
C3B0  8C FF 05  STY  A:00 X:00 Y:01 P:24 SP:52
C3B3  A4 BB     LDY  A:00 X:00 Y:01 P:24 SP:52
C3B5  D0 02     BNE  A:00 X:00 Y:00 P:26 SP:52
C3B7  85 BB     STA  A:00 X:00 Y:00 P:26 SP:52
C3B9  AC 2B 03  LDY  A:00 X:00 Y:00 P:26 SP:52
C3BC  D0 03     BNE  A:00 X:00 Y:00 P:26 SP:52
C3BE  8D 2B 03  STA  A:00 X:00 Y:00 P:26 SP:52
C3C1  60        RTS  A:00 X:00 Y:00 P:26 SP:52
3601  00 A0     BRK  A:00 X:00 Y:00 P:26 SP:54
C000  D8        CLD  A:00 X:00 Y:00 P:26 SP:51
C001  78        SEI  A:00 X:00 Y:00 P:26 SP:51
C002  AD 02 20  LDA  A:00 X:00 Y:00 P:26 SP:51
READING OUT OF PPU MMIO RANGE!!!
C005  10 FB     BPL  A:00 X:00 Y:00 P:26 SP:51
C102  B1 29     LDA  A:00 X:00 Y:00 P:26 SP:51
C104  C0 D0     CPY  A:00 X:00 Y:00 P:26 SP:51
C106  48        PHA  A:00 X:00 Y:00 P:24 SP:51
C107  A5 B1     LDA  A:00 X:00 Y:00 P:24 SP:50
C109  29 03     AND  A:00 X:00 Y:00 P:26 SP:50
C10B  F0 51     BEQ  A:00 X:00 Y:00 P:26 SP:50
C15E  4C 5B C3  JMP  A:00 X:00 Y:00 P:26 SP:50
C35B  20 1F C4  JSR  A:00 X:00 Y:00 P:26 SP:50
C41F  AD 29 03  LDA  A:00 X:00 Y:00 P:26 SP:4E
C422  85 1F     STA  A:00 X:00 Y:00 P:26 SP:4E
C424  A5 B9     LDA  A:00 X:00 Y:00 P:26 SP:4E
C426  4C 30 C4  JMP  A:00 X:00 Y:00 P:26 SP:4E
C430  38        SEC  A:00 X:00 Y:00 P:26 SP:4E
C431  E5 1F     SBC  A:00 X:00 Y:00 P:27 SP:4E
C433  10 07     BPL  A:00 X:00 Y:00 P:27 SP:4E
C43C  C9 05     CMP  A:00 X:00 Y:00 P:27 SP:4E
C43E  B0 03     BCS  A:00 X:00 Y:00 P:A4 SP:4E
C440  A0 02     LDY  A:00 X:00 Y:00 P:A4 SP:4E
C442  60        RTS  A:00 X:00 Y:02 P:24 SP:4E
C35E  A5 10     LDA  A:00 X:00 Y:02 P:24 SP:50
C360  29 03     AND  A:00 X:00 Y:02 P:26 SP:50
C362  88        DEY  A:00 X:00 Y:02 P:26 SP:50
C363  F0 11     BEQ  A:00 X:00 Y:01 P:24 SP:50
C365  C9 02     CMP  A:00 X:00 Y:01 P:24 SP:50
C367  D0 11     BNE  A:00 X:00 Y:01 P:A4 SP:50
C37A  4C A8 C3  JMP  A:00 X:00 Y:01 P:A4 SP:50
C3A8  A0 00     LDY  A:00 X:00 Y:01 P:A4 SP:50
C3AA  84 C1     STY  A:00 X:00 Y:00 P:26 SP:50
C3AC  8C 31 03  STY  A:00 X:00 Y:00 P:26 SP:50
C3AF  C8        INY  A:00 X:00 Y:00 P:26 SP:50
C3B0  8C FF 05  STY  A:00 X:00 Y:01 P:24 SP:50
C3B3  A4 BB     LDY  A:00 X:00 Y:01 P:24 SP:50
C3B5  D0 02     BNE  A:00 X:00 Y:00 P:26 SP:50
C3B7  85 BB     STA  A:00 X:00 Y:00 P:26 SP:50
C3B9  AC 2B 03  LDY  A:00 X:00 Y:00 P:26 SP:50
C3BC  D0 03     BNE  A:00 X:00 Y:00 P:26 SP:50
C3BE  8D 2B 03  STA  A:00 X:00 Y:00 P:26 SP:50
C3C1  60        RTS  A:00 X:00 Y:00 P:26 SP:50
3601  A0 A0     LDY  A:00 X:00 Y:00 P:26 SP:52
3603  A0 AC     LDY  A:00 X:00 Y:A0 P:A4 SP:52
3605  AC AC 00  LDY  A:00 X:00 Y:AC P:A4 SP:52
3608  00 00     BRK  A:00 X:00 Y:00 P:26 SP:52
C000  D8        CLD  A:00 X:00 Y:00 P:26 SP:4F
C001  78        SEI  A:00 X:00 Y:00 P:26 SP:4F
C002  AD 02 20  LDA  A:00 X:00 Y:00 P:26 SP:4F
READING OUT OF PPU MMIO RANGE!!!
C005  10 FB     BPL  A:00 X:00 Y:00 P:26 SP:4F
C102  B1 29     LDA  A:00 X:00 Y:00 P:26 SP:4F
C104  C0 D0     CPY  A:00 X:00 Y:00 P:26 SP:4F
C106  48        PHA  A:00 X:00 Y:00 P:24 SP:4F
C107  A5 B1     LDA  A:00 X:00 Y:00 P:24 SP:4E
C109  29 03     AND  A:00 X:00 Y:00 P:26 SP:4E
C10B  F0 51     BEQ  A:00 X:00 Y:00 P:26 SP:4E
C15E  4C 5B C3  JMP  A:00 X:00 Y:00 P:26 SP:4E
C35B  20 1F C4  JSR  A:00 X:00 Y:00 P:26 SP:4E
C41F  AD 29 03  LDA  A:00 X:00 Y:00 P:26 SP:4C
C422  85 1F     STA  A:00 X:00 Y:00 P:26 SP:4C
C424  A5 B9     LDA  A:00 X:00 Y:00 P:26 SP:4C
C426  4C 30 C4  JMP  A:00 X:00 Y:00 P:26 SP:4C
C430  38        SEC  A:00 X:00 Y:00 P:26 SP:4C
C431  E5 1F     SBC  A:00 X:00 Y:00 P:27 SP:4C
C433  10 07     BPL  A:00 X:00 Y:00 P:27 SP:4C
C43C  C9 05     CMP  A:00 X:00 Y:00 P:27 SP:4C
C43E  B0 03     BCS  A:00 X:00 Y:00 P:A4 SP:4C
C440  A0 02     LDY  A:00 X:00 Y:00 P:A4 SP:4C
C442  60        RTS  A:00 X:00 Y:02 P:24 SP:4C
C35E  A5 10     LDA  A:00 X:00 Y:02 P:24 SP:4E
C360  29 03     AND  A:00 X:00 Y:02 P:26 SP:4E
C362  88        DEY  A:00 X:00 Y:02 P:26 SP:4E
C363  F0 11     BEQ  A:00 X:00 Y:01 P:24 SP:4E
C365  C9 02     CMP  A:00 X:00 Y:01 P:24 SP:4E
C367  D0 11     BNE  A:00 X:00 Y:01 P:A4 SP:4E
C37A  4C A8 C3  JMP  A:00 X:00 Y:01 P:A4 SP:4E
C3A8  A0 00     LDY  A:00 X:00 Y:01 P:A4 SP:4E
C3AA  84 C1     STY  A:00 X:00 Y:00 P:26 SP:4E
C3AC  8C 31 03  STY  A:00 X:00 Y:00 P:26 SP:4E
C3AF  C8        INY  A:00 X:00 Y:00 P:26 SP:4E
C3B0  8C FF 05  STY  A:00 X:00 Y:01 P:24 SP:4E
C3B3  A4 BB     LDY  A:00 X:00 Y:01 P:24 SP:4E
C3B5  D0 02     BNE  A:00 X:00 Y:00 P:26 SP:4E
C3B7  85 BB     STA  A:00 X:00 Y:00 P:26 SP:4E
C3B9  AC 2B 03  LDY  A:00 X:00 Y:00 P:26 SP:4E
C3BC  D0 03     BNE  A:00 X:00 Y:00 P:26 SP:4E
C3BE  8D 2B 03  STA  A:00 X:00 Y:00 P:26 SP:4E
C3C1  60        RTS  A:00 X:00 Y:00 P:26 SP:4E
3601  00 A0     BRK  A:00 X:00 Y:00 P:26 SP:50
C000  D8        CLD  A:00 X:00 Y:00 P:26 SP:4D
C001  78        SEI  A:00 X:00 Y:00 P:26 SP:4D
C002  AD 02 20  LDA  A:00 X:00 Y:00 P:26 SP:4D
READING OUT OF PPU MMIO RANGE!!!
C005  10 FB     BPL  A:00 X:00 Y:00 P:26 SP:4D
C102  B1 29     LDA  A:00 X:00 Y:00 P:26 SP:4D
C104  C0 D0     CPY  A:00 X:00 Y:00 P:26 SP:4D
C106  48        PHA  A:00 X:00 Y:00 P:24 SP:4D
C107  A5 B1     LDA  A:00 X:00 Y:00 P:24 SP:4C
C109  29 03     AND  A:00 X:00 Y:00 P:26 SP:4C
C10B  F0 51     BEQ  A:00 X:00 Y:00 P:26 SP:4C
C15E  4C 5B C3  JMP  A:00 X:00 Y:00 P:26 SP:4C
C35B  20 1F C4  JSR  A:00 X:00 Y:00 P:26 SP:4C
C41F  AD 29 03  LDA  A:00 X:00 Y:00 P:26 SP:4A
C422  85 1F     STA  A:00 X:00 Y:00 P:26 SP:4A
C424  A5 B9     LDA  A:00 X:00 Y:00 P:26 SP:4A
C426  4C 30 C4  JMP  A:00 X:00 Y:00 P:26 SP:4A
C430  38        SEC  A:00 X:00 Y:00 P:26 SP:4A
C431  E5 1F     SBC  A:00 X:00 Y:00 P:27 SP:4A
C433  10 07     BPL  A:00 X:00 Y:00 P:27 SP:4A
C43C  C9 05     CMP  A:00 X:00 Y:00 P:27 SP:4A
C43E  B0 03     BCS  A:00 X:00 Y:00 P:A4 SP:4A
C440  A0 02     LDY  A:00 X:00 Y:00 P:A4 SP:4A
C442  60        RTS  A:00 X:00 Y:02 P:24 SP:4A
C35E  A5 10     LDA  A:00 X:00 Y:02 P:24 SP:4C
C360  29 03     AND  A:00 X:00 Y:02 P:26 SP:4C
C362  88        DEY  A:00 X:00 Y:02 P:26 SP:4C
C363  F0 11     BEQ  A:00 X:00 Y:01 P:24 SP:4C
C365  C9 02     CMP  A:00 X:00 Y:01 P:24 SP:4C
C367  D0 11     BNE  A:00 X:00 Y:01 P:A4 SP:4C
C37A  4C A8 C3  JMP  A:00 X:00 Y:01 P:A4 SP:4C
C3A8  A0 00     LDY  A:00 X:00 Y:01 P:A4 SP:4C
C3AA  84 C1     STY  A:00 X:00 Y:00 P:26 SP:4C
C3AC  8C 31 03  STY  A:00 X:00 Y:00 P:26 SP:4C
C3AF  C8        INY  A:00 X:00 Y:00 P:26 SP:4C
C3B0  8C FF 05  STY  A:00 X:00 Y:01 P:24 SP:4C
C3B3  A4 BB     LDY  A:00 X:00 Y:01 P:24 SP:4C
C3B5  D0 02     BNE  A:00 X:00 Y:00 P:26 SP:4C
C3B7  85 BB     STA  A:00 X:00 Y:00 P:26 SP:4C
C3B9  AC 2B 03  LDY  A:00 X:00 Y:00 P:26 SP:4C
C3BC  D0 03     BNE  A:00 X:00 Y:00 P:26 SP:4C
C3BE  8D 2B 03  STA  A:00 X:00 Y:00 P:26 SP:4C
C3C1  60        RTS  A:00 X:00 Y:00 P:26 SP:4C
3601  A0 A0     LDY  A:00 X:00 Y:00 P:26 SP:4E
3603  A0 AC     LDY  A:00 X:00 Y:A0 P:A4 SP:4E
3605  AC AC 00  LDY  A:00 X:00 Y:AC P:A4 SP:4E
3608  00 00     BRK  A:00 X:00 Y:00 P:26 SP:4E
C000  D8        CLD  A:00 X:00 Y:00 P:26 SP:4B
C001  78        SEI  A:00 X:00 Y:00 P:26 SP:4B
C002  AD 02 20  LDA  A:00 X:00 Y:00 P:26 SP:4B
READING OUT OF PPU MMIO RANGE!!!
C005  10 FB     BPL  A:00 X:00 Y:00 P:26 SP:4B
C102  B1 29     LDA  A:00 X:00 Y:00 P:26 SP:4B
C104  C0 D0     CPY  A:00 X:00 Y:00 P:26 SP:4B
C106  48        PHA  A:00 X:00 Y:00 P:24 SP:4B
C107  A5 B1     LDA  A:00 X:00 Y:00 P:24 SP:4A
C109  29 03     AND  A:00 X:00 Y:00 P:26 SP:4A
C10B  F0 51     BEQ  A:00 X:00 Y:00 P:26 SP:4A
C15E  4C 5B C3  JMP  A:00 X:00 Y:00 P:26 SP:4A
C35B  20 1F C4  JSR  A:00 X:00 Y:00 P:26 SP:4A
C41F  AD 29 03  LDA  A:00 X:00 Y:00 P:26 SP:48
C422  85 1F     STA  A:00 X:00 Y:00 P:26 SP:48
C424  A5 B9     LDA  A:00 X:00 Y:00 P:26 SP:48
C426  4C 30 C4  JMP  A:00 X:00 Y:00 P:26 SP:48
C430  38        SEC  A:00 X:00 Y:00 P:26 SP:48
C431  E5 1F     SBC  A:00 X:00 Y:00 P:27 SP:48
C433  10 07     BPL  A:00 X:00 Y:00 P:27 SP:48
C43C  C9 05     CMP  A:00 X:00 Y:00 P:27 SP:48
C43E  B0 03     BCS  A:00 X:00 Y:00 P:A4 SP:48
C440  A0 02     LDY  A:00 X:00 Y:00 P:A4 SP:48
C442  60        RTS  A:00 X:00 Y:02 P:24 SP:48
C35E  A5 10     LDA  A:00 X:00 Y:02 P:24 SP:4A
C360  29 03     AND  A:00 X:00 Y:02 P:26 SP:4A
C362  88        DEY  A:00 X:00 Y:02 P:26 SP:4A
C363  F0 11     BEQ  A:00 X:00 Y:01 P:24 SP:4A
C365  C9 02     CMP  A:00 X:00 Y:01 P:24 SP:4A
C367  D0 11     BNE  A:00 X:00 Y:01 P:A4 SP:4A
C37A  4C A8 C3  JMP  A:00 X:00 Y:01 P:A4 SP:4A
C3A8  A0 00     LDY  A:00 X:00 Y:01 P:A4 SP:4A
C3AA  84 C1     STY  A:00 X:00 Y:00 P:26 SP:4A
C3AC  8C 31 03  STY  A:00 X:00 Y:00 P:26 SP:4A
C3AF  C8        INY  A:00 X:00 Y:00 P:26 SP:4A
C3B0  8C FF 05  STY  A:00 X:00 Y:01 P:24 SP:4A
C3B3  A4 BB     LDY  A:00 X:00 Y:01 P:24 SP:4A
C3B5  D0 02     BNE  A:00 X:00 Y:00 P:26 SP:4A
C3B7  85 BB     STA  A:00 X:00 Y:00 P:26 SP:4A
C3B9  AC 2B 03  LDY  A:00 X:00 Y:00 P:26 SP:4A
C3BC  D0 03     BNE  A:00 X:00 Y:00 P:26 SP:4A
C3BE  8D 2B 03  STA  A:00 X:00 Y:00 P:26 SP:4A
C3C1  60        RTS  A:00 X:00 Y:00 P:26 SP:4A
3601  00 A0     BRK  A:00 X:00 Y:00 P:26 SP:4C
C000  D8        CLD  A:00 X:00 Y:00 P:26 SP:49
C001  78        SEI  A:00 X:00 Y:00 P:26 SP:49
C002  AD 02 20  LDA  A:00 X:00 Y:00 P:26 SP:49
READING OUT OF PPU MMIO RANGE!!!
C005  10 FB     BPL  A:00 X:00 Y:00 P:26 SP:49
C102  B1 29     LDA  A:00 X:00 Y:00 P:26 SP:49
C104  C0 D0     CPY  A:00 X:00 Y:00 P:26 SP:49
C106  48        PHA  A:00 X:00 Y:00 P:24 SP:49
C107  A5 B1     LDA  A:00 X:00 Y:00 P:24 SP:48
C109  29 03     AND  A:00 X:00 Y:00 P:26 SP:48
C10B  F0 51     BEQ  A:00 X:00 Y:00 P:26 SP:48
C15E  4C 5B C3  JMP  A:00 X:00 Y:00 P:26 SP:48
C35B  20 1F C4  JSR  A:00 X:00 Y:00 P:26 SP:48
C41F  AD 29 03  LDA  A:00 X:00 Y:00 P:26 SP:46
C422  85 1F     STA  A:00 X:00 Y:00 P:26 SP:46
C424  A5 B9     LDA  A:00 X:00 Y:00 P:26 SP:46
C426  4C 30 C4  JMP  A:00 X:00 Y:00 P:26 SP:46
C430  38        SEC  A:00 X:00 Y:00 P:26 SP:46
C431  E5 1F     SBC  A:00 X:00 Y:00 P:27 SP:46
C433  10 07     BPL  A:00 X:00 Y:00 P:27 SP:46
C43C  C9 05     CMP  A:00 X:00 Y:00 P:27 SP:46
C43E  B0 03     BCS  A:00 X:00 Y:00 P:A4 SP:46
C440  A0 02     LDY  A:00 X:00 Y:00 P:A4 SP:46
C442  60        RTS  A:00 X:00 Y:02 P:24 SP:46
C35E  A5 10     LDA  A:00 X:00 Y:02 P:24 SP:48
C360  29 03     AND  A:00 X:00 Y:02 P:26 SP:48
C362  88        DEY  A:00 X:00 Y:02 P:26 SP:48
C363  F0 11     BEQ  A:00 X:00 Y:01 P:24 SP:48
C365  C9 02     CMP  A:00 X:00 Y:01 P:24 SP:48
C367  D0 11     BNE  A:00 X:00 Y:01 P:A4 SP:48
C37A  4C A8 C3  JMP  A:00 X:00 Y:01 P:A4 SP:48
C3A8  A0 00     LDY  A:00 X:00 Y:01 P:A4 SP:48
C3AA  84 C1     STY  A:00 X:00 Y:00 P:26 SP:48
C3AC  8C 31 03  STY  A:00 X:00 Y:00 P:26 SP:48
C3AF  C8        INY  A:00 X:00 Y:00 P:26 SP:48
C3B0  8C FF 05  STY  A:00 X:00 Y:01 P:24 SP:48
C3B3  A4 BB     LDY  A:00 X:00 Y:01 P:24 SP:48
C3B5  D0 02     BNE  A:00 X:00 Y:00 P:26 SP:48
C3B7  85 BB     STA  A:00 X:00 Y:00 P:26 SP:48
C3B9  AC 2B 03  LDY  A:00 X:00 Y:00 P:26 SP:48
C3BC  D0 03     BNE  A:00 X:00 Y:00 P:26 SP:48
C3BE  8D 2B 03  STA  A:00 X:00 Y:00 P:26 SP:48
C3C1  60        RTS  A:00 X:00 Y:00 P:26 SP:48
3601  A0 A0     LDY  A:00 X:00 Y:00 P:26 SP:4A
3603  A0 AC     LDY  A:00 X:00 Y:A0 P:A4 SP:4A
3605  AC AC 00  LDY  A:00 X:00 Y:AC P:A4 SP:4A
3608  00 00     BRK  A:00 X:00 Y:00 P:26 SP:4A
C000  D8        CLD  A:00 X:00 Y:00 P:26 SP:47
C001  78        SEI  A:00 X:00 Y:00 P:26 SP:47
C002  AD 02 20  LDA  A:00 X:00 Y:00 P:26 SP:47
READING OUT OF PPU MMIO RANGE!!!
C005  10 FB     BPL  A:00 X:00 Y:00 P:26 SP:47
C102  B1 29     LDA  A:00 X:00 Y:00 P:26 SP:47
C104  C0 D0     CPY  A:00 X:00 Y:00 P:26 SP:47
C106  48        PHA  A:00 X:00 Y:00 P:24 SP:47
C107  A5 B1     LDA  A:00 X:00 Y:00 P:24 SP:46
C109  29 03     AND  A:00 X:00 Y:00 P:26 SP:46
C10B  F0 51     BEQ  A:00 X:00 Y:00 P:26 SP:46
C15E  4C 5B C3  JMP  A:00 X:00 Y:00 P:26 SP:46
C35B  20 1F C4  JSR  A:00 X:00 Y:00 P:26 SP:46
C41F  AD 29 03  LDA  A:00 X:00 Y:00 P:26 SP:44
C422  85 1F     STA  A:00 X:00 Y:00 P:26 SP:44
C424  A5 B9     LDA  A:00 X:00 Y:00 P:26 SP:44
C426  4C 30 C4  JMP  A:00 X:00 Y:00 P:26 SP:44
C430  38        SEC  A:00 X:00 Y:00 P:26 SP:44
C431  E5 1F     SBC  A:00 X:00 Y:00 P:27 SP:44
C433  10 07     BPL  A:00 X:00 Y:00 P:27 SP:44
C43C  C9 05     CMP  A:00 X:00 Y:00 P:27 SP:44
C43E  B0 03     BCS  A:00 X:00 Y:00 P:A4 SP:44
C440  A0 02     LDY  A:00 X:00 Y:00 P:A4 SP:44
C442  60        RTS  A:00 X:00 Y:02 P:24 SP:44
C35E  A5 10     LDA  A:00 X:00 Y:02 P:24 SP:46
C360  29 03     AND  A:00 X:00 Y:02 P:26 SP:46
C362  88        DEY  A:00 X:00 Y:02 P:26 SP:46
C363  F0 11     BEQ  A:00 X:00 Y:01 P:24 SP:46
C365  C9 02     CMP  A:00 X:00 Y:01 P:24 SP:46
C367  D0 11     BNE  A:00 X:00 Y:01 P:A4 SP:46
C37A  4C A8 C3  JMP  A:00 X:00 Y:01 P:A4 SP:46
C3A8  A0 00     LDY  A:00 X:00 Y:01 P:A4 SP:46
C3AA  84 C1     STY  A:00 X:00 Y:00 P:26 SP:46
C3AC  8C 31 03  STY  A:00 X:00 Y:00 P:26 SP:46
C3AF  C8        INY  A:00 X:00 Y:00 P:26 SP:46
C3B0  8C FF 05  STY  A:00 X:00 Y:01 P:24 SP:46
C3B3  A4 BB     LDY  A:00 X:00 Y:01 P:24 SP:46
C3B5  D0 02     BNE  A:00 X:00 Y:00 P:26 SP:46
C3B7  85 BB     STA  A:00 X:00 Y:00 P:26 SP:46
C3B9  AC 2B 03  LDY  A:00 X:00 Y:00 P:26 SP:46
C3BC  D0 03     BNE  A:00 X:00 Y:00 P:26 SP:46
C3BE  8D 2B 03  STA  A:00 X:00 Y:00 P:26 SP:46
C3C1  60        RTS  A:00 X:00 Y:00 P:26 SP:46
3601  00 A0     BRK  A:00 X:00 Y:00 P:26 SP:48
C000  D8        CLD  A:00 X:00 Y:00 P:26 SP:45
C001  78        SEI  A:00 X:00 Y:00 P:26 SP:45
C002  AD 02 20  LDA  A:00 X:00 Y:00 P:26 SP:45
READING OUT OF PPU MMIO RANGE!!!
C005  10 FB     BPL  A:00 X:00 Y:00 P:26 SP:45
C102  B1 29     LDA  A:00 X:00 Y:00 P:26 SP:45
C104  C0 D0     CPY  A:00 X:00 Y:00 P:26 SP:45
C106  48        PHA  A:00 X:00 Y:00 P:24 SP:45
C107  A5 B1     LDA  A:00 X:00 Y:00 P:24 SP:44
C109  29 03     AND  A:00 X:00 Y:00 P:26 SP:44
C10B  F0 51     BEQ  A:00 X:00 Y:00 P:26 SP:44
C15E  4C 5B C3  JMP  A:00 X:00 Y:00 P:26 SP:44
C35B  20 1F C4  JSR  A:00 X:00 Y:00 P:26 SP:44
C41F  AD 29 03  LDA  A:00 X:00 Y:00 P:26 SP:42
C422  85 1F     STA  A:00 X:00 Y:00 P:26 SP:42
C424  A5 B9     LDA  A:00 X:00 Y:00 P:26 SP:42
C426  4C 30 C4  JMP  A:00 X:00 Y:00 P:26 SP:42
C430  38        SEC  A:00 X:00 Y:00 P:26 SP:42
C431  E5 1F     SBC  A:00 X:00 Y:00 P:27 SP:42
C433  10 07     BPL  A:00 X:00 Y:00 P:27 SP:42
C43C  C9 05     CMP  A:00 X:00 Y:00 P:27 SP:42
C43E  B0 03     BCS  A:00 X:00 Y:00 P:A4 SP:42
C440  A0 02     LDY  A:00 X:00 Y:00 P:A4 SP:42
C442  60        RTS  A:00 X:00 Y:02 P:24 SP:42
C35E  A5 10     LDA  A:00 X:00 Y:02 P:24 SP:44
C360  29 03     AND  A:00 X:00 Y:02 P:26 SP:44
C362  88        DEY  A:00 X:00 Y:02 P:26 SP:44
C363  F0 11     BEQ  A:00 X:00 Y:01 P:24 SP:44
C365  C9 02     CMP  A:00 X:00 Y:01 P:24 SP:44
C367  D0 11     BNE  A:00 X:00 Y:01 P:A4 SP:44
C37A  4C A8 C3  JMP  A:00 X:00 Y:01 P:A4 SP:44
C3A8  A0 00     LDY  A:00 X:00 Y:01 P:A4 SP:44
C3AA  84 C1     STY  A:00 X:00 Y:00 P:26 SP:44
C3AC  8C 31 03  STY  A:00 X:00 Y:00 P:26 SP:44
C3AF  C8        INY  A:00 X:00 Y:00 P:26 SP:44
C3B0  8C FF 05  STY  A:00 X:00 Y:01 P:24 SP:44
C3B3  A4 BB     LDY  A:00 X:00 Y:01 P:24 SP:44
C3B5  D0 02     BNE  A:00 X:00 Y:00 P:26 SP:44
C3B7  85 BB     STA  A:00 X:00 Y:00 P:26 SP:44
C3B9  AC 2B 03  LDY  A:00 X:00 Y:00 P:26 SP:44
C3BC  D0 03     BNE  A:00 X:00 Y:00 P:26 SP:44
C3BE  8D 2B 03  STA  A:00 X:00 Y:00 P:26 SP:44
C3C1  60        RTS  A:00 X:00 Y:00 P:26 SP:44
3601  A0 A0     LDY  A:00 X:00 Y:00 P:26 SP:46
3603  A0 AC     LDY  A:00 X:00 Y:A0 P:A4 SP:46
3605  AC AC 00  LDY  A:00 X:00 Y:AC P:A4 SP:46
3608  00 00     BRK  A:00 X:00 Y:00 P:26 SP:46
C000  D8        CLD  A:00 X:00 Y:00 P:26 SP:43
C001  78        SEI  A:00 X:00 Y:00 P:26 SP:43
C002  AD 02 20  LDA  A:00 X:00 Y:00 P:26 SP:43
READING OUT OF PPU MMIO RANGE!!!
C005  10 FB     BPL  A:00 X:00 Y:00 P:26 SP:43
C102  B1 29     LDA  A:00 X:00 Y:00 P:26 SP:43
C104  C0 D0     CPY  A:00 X:00 Y:00 P:26 SP:43
C106  48        PHA  A:00 X:00 Y:00 P:24 SP:43
C107  A5 B1     LDA  A:00 X:00 Y:00 P:24 SP:42
C109  29 03     AND  A:00 X:00 Y:00 P:26 SP:42
C10B  F0 51     BEQ  A:00 X:00 Y:00 P:26 SP:42
C15E  4C 5B C3  JMP  A:00 X:00 Y:00 P:26 SP:42
C35B  20 1F C4  JSR  A:00 X:00 Y:00 P:26 SP:42
C41F  AD 29 03  LDA  A:00 X:00 Y:00 P:26 SP:40
C422  85 1F     STA  A:00 X:00 Y:00 P:26 SP:40
C424  A5 B9     LDA  A:00 X:00 Y:00 P:26 SP:40
C426  4C 30 C4  JMP  A:00 X:00 Y:00 P:26 SP:40
C430  38        SEC  A:00 X:00 Y:00 P:26 SP:40
C431  E5 1F     SBC  A:00 X:00 Y:00 P:27 SP:40
C433  10 07     BPL  A:00 X:00 Y:00 P:27 SP:40
C43C  C9 05     CMP  A:00 X:00 Y:00 P:27 SP:40
C43E  B0 03     BCS  A:00 X:00 Y:00 P:A4 SP:40
C440  A0 02     LDY  A:00 X:00 Y:00 P:A4 SP:40
C442  60        RTS  A:00 X:00 Y:02 P:24 SP:40
C35E  A5 10     LDA  A:00 X:00 Y:02 P:24 SP:42
C360  29 03     AND  A:00 X:00 Y:02 P:26 SP:42
C362  88        DEY  A:00 X:00 Y:02 P:26 SP:42
C363  F0 11     BEQ  A:00 X:00 Y:01 P:24 SP:42
C365  C9 02     CMP  A:00 X:00 Y:01 P:24 SP:42
C367  D0 11     BNE  A:00 X:00 Y:01 P:A4 SP:42
C37A  4C A8 C3  JMP  A:00 X:00 Y:01 P:A4 SP:42
C3A8  A0 00     LDY  A:00 X:00 Y:01 P:A4 SP:42
C3AA  84 C1     STY  A:00 X:00 Y:00 P:26 SP:42
C3AC  8C 31 03  STY  A:00 X:00 Y:00 P:26 SP:42
C3AF  C8        INY  A:00 X:00 Y:00 P:26 SP:42
C3B0  8C FF 05  STY  A:00 X:00 Y:01 P:24 SP:42
C3B3  A4 BB     LDY  A:00 X:00 Y:01 P:24 SP:42
C3B5  D0 02     BNE  A:00 X:00 Y:00 P:26 SP:42
C3B7  85 BB     STA  A:00 X:00 Y:00 P:26 SP:42
C3B9  AC 2B 03  LDY  A:00 X:00 Y:00 P:26 SP:42
C3BC  D0 03     BNE  A:00 X:00 Y:00 P:26 SP:42
C3BE  8D 2B 03  STA  A:00 X:00 Y:00 P:26 SP:42
C3C1  60        RTS  A:00 X:00 Y:00 P:26 SP:42
3601  00 A0     BRK  A:00 X:00 Y:00 P:26 SP:44
C000  D8        CLD  A:00 X:00 Y:00 P:26 SP:41
C001  78        SEI  A:00 X:00 Y:00 P:26 SP:41
C002  AD 02 20  LDA  A:00 X:00 Y:00 P:26 SP:41
READING OUT OF PPU MMIO RANGE!!!
C005  10 FB     BPL  A:00 X:00 Y:00 P:26 SP:41
C102  B1 29     LDA  A:00 X:00 Y:00 P:26 SP:41
C104  C0 D0     CPY  A:00 X:00 Y:00 P:26 SP:41
C106  48        PHA  A:00 X:00 Y:00 P:24 SP:41
C107  A5 B1     LDA  A:00 X:00 Y:00 P:24 SP:40
C109  29 03     AND  A:00 X:00 Y:00 P:26 SP:40
C10B  F0 51     BEQ  A:00 X:00 Y:00 P:26 SP:40
C15E  4C 5B C3  JMP  A:00 X:00 Y:00 P:26 SP:40
C35B  20 1F C4  JSR  A:00 X:00 Y:00 P:26 SP:40
C41F  AD 29 03  LDA  A:00 X:00 Y:00 P:26 SP:3E
C422  85 1F     STA  A:00 X:00 Y:00 P:26 SP:3E
C424  A5 B9     LDA  A:00 X:00 Y:00 P:26 SP:3E
C426  4C 30 C4  JMP  A:00 X:00 Y:00 P:26 SP:3E
C430  38        SEC  A:00 X:00 Y:00 P:26 SP:3E
C431  E5 1F     SBC  A:00 X:00 Y:00 P:27 SP:3E
C433  10 07     BPL  A:00 X:00 Y:00 P:27 SP:3E
C43C  C9 05     CMP  A:00 X:00 Y:00 P:27 SP:3E
C43E  B0 03     BCS  A:00 X:00 Y:00 P:A4 SP:3E
C440  A0 02     LDY  A:00 X:00 Y:00 P:A4 SP:3E
C442  60        RTS  A:00 X:00 Y:02 P:24 SP:3E
C35E  A5 10     LDA  A:00 X:00 Y:02 P:24 SP:40
C360  29 03     AND  A:00 X:00 Y:02 P:26 SP:40
C362  88        DEY  A:00 X:00 Y:02 P:26 SP:40
C363  F0 11     BEQ  A:00 X:00 Y:01 P:24 SP:40
C365  C9 02     CMP  A:00 X:00 Y:01 P:24 SP:40
C367  D0 11     BNE  A:00 X:00 Y:01 P:A4 SP:40
C37A  4C A8 C3  JMP  A:00 X:00 Y:01 P:A4 SP:40
C3A8  A0 00     LDY  A:00 X:00 Y:01 P:A4 SP:40
C3AA  84 C1     STY  A:00 X:00 Y:00 P:26 SP:40
C3AC  8C 31 03  STY  A:00 X:00 Y:00 P:26 SP:40
C3AF  C8        INY  A:00 X:00 Y:00 P:26 SP:40
C3B0  8C FF 05  STY  A:00 X:00 Y:01 P:24 SP:40
C3B3  A4 BB     LDY  A:00 X:00 Y:01 P:24 SP:40
C3B5  D0 02     BNE  A:00 X:00 Y:00 P:26 SP:40
C3B7  85 BB     STA  A:00 X:00 Y:00 P:26 SP:40
C3B9  AC 2B 03  LDY  A:00 X:00 Y:00 P:26 SP:40
C3BC  D0 03     BNE  A:00 X:00 Y:00 P:26 SP:40
C3BE  8D 2B 03  STA  A:00 X:00 Y:00 P:26 SP:40
C3C1  60        RTS  A:00 X:00 Y:00 P:26 SP:40
3601  A0 A0     LDY  A:00 X:00 Y:00 P:26 SP:42
3603  A0 AC     LDY  A:00 X:00 Y:A0 P:A4 SP:42
3605  AC AC 00  LDY  A:00 X:00 Y:AC P:A4 SP:42
3608  00 00     BRK  A:00 X:00 Y:00 P:26 SP:42
C000  D8        CLD  A:00 X:00 Y:00 P:26 SP:3F
C001  78        SEI  A:00 X:00 Y:00 P:26 SP:3F
C002  AD 02 20  LDA  A:00 X:00 Y:00 P:26 SP:3F
READING OUT OF PPU MMIO RANGE!!!
C005  10 FB     BPL  A:00 X:00 Y:00 P:26 SP:3F
C102  B1 29     LDA  A:00 X:00 Y:00 P:26 SP:3F
C104  C0 D0     CPY  A:00 X:00 Y:00 P:26 SP:3F
C106  48        PHA  A:00 X:00 Y:00 P:24 SP:3F
C107  A5 B1     LDA  A:00 X:00 Y:00 P:24 SP:3E
C109  29 03     AND  A:00 X:00 Y:00 P:26 SP:3E
C10B  F0 51     BEQ  A:00 X:00 Y:00 P:26 SP:3E
C15E  4C 5B C3  JMP  A:00 X:00 Y:00 P:26 SP:3E
C35B  20 1F C4  JSR  A:00 X:00 Y:00 P:26 SP:3E
C41F  AD 29 03  LDA  A:00 X:00 Y:00 P:26 SP:3C
C422  85 1F     STA  A:00 X:00 Y:00 P:26 SP:3C
C424  A5 B9     LDA  A:00 X:00 Y:00 P:26 SP:3C
C426  4C 30 C4  JMP  A:00 X:00 Y:00 P:26 SP:3C
C430  38        SEC  A:00 X:00 Y:00 P:26 SP:3C
C431  E5 1F     SBC  A:00 X:00 Y:00 P:27 SP:3C
C433  10 07     BPL  A:00 X:00 Y:00 P:27 SP:3C
C43C  C9 05     CMP  A:00 X:00 Y:00 P:27 SP:3C
C43E  B0 03     BCS  A:00 X:00 Y:00 P:A4 SP:3C
C440  A0 02     LDY  A:00 X:00 Y:00 P:A4 SP:3C
C442  60        RTS  A:00 X:00 Y:02 P:24 SP:3C
C35E  A5 10     LDA  A:00 X:00 Y:02 P:24 SP:3E
C360  29 03     AND  A:00 X:00 Y:02 P:26 SP:3E
C362  88        DEY  A:00 X:00 Y:02 P:26 SP:3E
C363  F0 11     BEQ  A:00 X:00 Y:01 P:24 SP:3E
C365  C9 02     CMP  A:00 X:00 Y:01 P:24 SP:3E
C367  D0 11     BNE  A:00 X:00 Y:01 P:A4 SP:3E
C37A  4C A8 C3  JMP  A:00 X:00 Y:01 P:A4 SP:3E
C3A8  A0 00     LDY  A:00 X:00 Y:01 P:A4 SP:3E
C3AA  84 C1     STY  A:00 X:00 Y:00 P:26 SP:3E
C3AC  8C 31 03  STY  A:00 X:00 Y:00 P:26 SP:3E
C3AF  C8        INY  A:00 X:00 Y:00 P:26 SP:3E
C3B0  8C FF 05  STY  A:00 X:00 Y:01 P:24 SP:3E
C3B3  A4 BB     LDY  A:00 X:00 Y:01 P:24 SP:3E
C3B5  D0 02     BNE  A:00 X:00 Y:00 P:26 SP:3E
C3B7  85 BB     STA  A:00 X:00 Y:00 P:26 SP:3E
C3B9  AC 2B 03  LDY  A:00 X:00 Y:00 P:26 SP:3E
C3BC  D0 03     BNE  A:00 X:00 Y:00 P:26 SP:3E
C3BE  8D 2B 03  STA  A:00 X:00 Y:00 P:26 SP:3E
C3C1  60        RTS  A:00 X:00 Y:00 P:26 SP:3E
3601  00 A0     BRK  A:00 X:00 Y:00 P:26 SP:40
C000  D8        CLD  A:00 X:00 Y:00 P:26 SP:3D
C001  78        SEI  A:00 X:00 Y:00 P:26 SP:3D
C002  AD 02 20  LDA  A:00 X:00 Y:00 P:26 SP:3D
READING OUT OF PPU MMIO RANGE!!!
C005  10 FB     BPL  A:00 X:00 Y:00 P:26 SP:3D
C102  B1 29     LDA  A:00 X:00 Y:00 P:26 SP:3D
C104  C0 D0     CPY  A:00 X:00 Y:00 P:26 SP:3D
C106  48        PHA  A:00 X:00 Y:00 P:24 SP:3D
C107  A5 B1     LDA  A:00 X:00 Y:00 P:24 SP:3C
C109  29 03     AND  A:00 X:00 Y:00 P:26 SP:3C
C10B  F0 51     BEQ  A:00 X:00 Y:00 P:26 SP:3C
C15E  4C 5B C3  JMP  A:00 X:00 Y:00 P:26 SP:3C
C35B  20 1F C4  JSR  A:00 X:00 Y:00 P:26 SP:3C
C41F  AD 29 03  LDA  A:00 X:00 Y:00 P:26 SP:3A
C422  85 1F     STA  A:00 X:00 Y:00 P:26 SP:3A
C424  A5 B9     LDA  A:00 X:00 Y:00 P:26 SP:3A
C426  4C 30 C4  JMP  A:00 X:00 Y:00 P:26 SP:3A
C430  38        SEC  A:00 X:00 Y:00 P:26 SP:3A
C431  E5 1F     SBC  A:00 X:00 Y:00 P:27 SP:3A
C433  10 07     BPL  A:00 X:00 Y:00 P:27 SP:3A
C43C  C9 05     CMP  A:00 X:00 Y:00 P:27 SP:3A
C43E  B0 03     BCS  A:00 X:00 Y:00 P:A4 SP:3A
C440  A0 02     LDY  A:00 X:00 Y:00 P:A4 SP:3A
C442  60        RTS  A:00 X:00 Y:02 P:24 SP:3A
C35E  A5 10     LDA  A:00 X:00 Y:02 P:24 SP:3C
C360  29 03     AND  A:00 X:00 Y:02 P:26 SP:3C
C362  88        DEY  A:00 X:00 Y:02 P:26 SP:3C
C363  F0 11     BEQ  A:00 X:00 Y:01 P:24 SP:3C
C365  C9 02     CMP  A:00 X:00 Y:01 P:24 SP:3C
C367  D0 11     BNE  A:00 X:00 Y:01 P:A4 SP:3C
C37A  4C A8 C3  JMP  A:00 X:00 Y:01 P:A4 SP:3C
C3A8  A0 00     LDY  A:00 X:00 Y:01 P:A4 SP:3C
C3AA  84 C1     STY  A:00 X:00 Y:00 P:26 SP:3C
C3AC  8C 31 03  STY  A:00 X:00 Y:00 P:26 SP:3C
C3AF  C8        INY  A:00 X:00 Y:00 P:26 SP:3C
C3B0  8C FF 05  STY  A:00 X:00 Y:01 P:24 SP:3C
C3B3  A4 BB     LDY  A:00 X:00 Y:01 P:24 SP:3C
C3B5  D0 02     BNE  A:00 X:00 Y:00 P:26 SP:3C
C3B7  85 BB     STA  A:00 X:00 Y:00 P:26 SP:3C
C3B9  AC 2B 03  LDY  A:00 X:00 Y:00 P:26 SP:3C
C3BC  D0 03     BNE  A:00 X:00 Y:00 P:26 SP:3C
C3BE  8D 2B 03  STA  A:00 X:00 Y:00 P:26 SP:3C
C3C1  60        RTS  A:00 X:00 Y:00 P:26 SP:3C
3601  A0 A0     LDY  A:00 X:00 Y:00 P:26 SP:3E
3603  A0 AC     LDY  A:00 X:00 Y:A0 P:A4 SP:3E
3605  AC AC 00  LDY  A:00 X:00 Y:AC P:A4 SP:3E
3608  00 00     BRK  A:00 X:00 Y:00 P:26 SP:3E
C000  D8        CLD  A:00 X:00 Y:00 P:26 SP:3B
C001  78        SEI  A:00 X:00 Y:00 P:26 SP:3B
C002  AD 02 20  LDA  A:00 X:00 Y:00 P:26 SP:3B
READING OUT OF PPU MMIO RANGE!!!
C005  10 FB     BPL  A:00 X:00 Y:00 P:26 SP:3B
C102  B1 29     LDA  A:00 X:00 Y:00 P:26 SP:3B
C104  C0 D0     CPY  A:00 X:00 Y:00 P:26 SP:3B
C106  48        PHA  A:00 X:00 Y:00 P:24 SP:3B
C107  A5 B1     LDA  A:00 X:00 Y:00 P:24 SP:3A
C109  29 03     AND  A:00 X:00 Y:00 P:26 SP:3A
C10B  F0 51     BEQ  A:00 X:00 Y:00 P:26 SP:3A
C15E  4C 5B C3  JMP  A:00 X:00 Y:00 P:26 SP:3A
C35B  20 1F C4  JSR  A:00 X:00 Y:00 P:26 SP:3A
C41F  AD 29 03  LDA  A:00 X:00 Y:00 P:26 SP:38
C422  85 1F     STA  A:00 X:00 Y:00 P:26 SP:38
C424  A5 B9     LDA  A:00 X:00 Y:00 P:26 SP:38
C426  4C 30 C4  JMP  A:00 X:00 Y:00 P:26 SP:38
C430  38        SEC  A:00 X:00 Y:00 P:26 SP:38
C431  E5 1F     SBC  A:00 X:00 Y:00 P:27 SP:38
C433  10 07     BPL  A:00 X:00 Y:00 P:27 SP:38
C43C  C9 05     CMP  A:00 X:00 Y:00 P:27 SP:38
C43E  B0 03     BCS  A:00 X:00 Y:00 P:A4 SP:38
C440  A0 02     LDY  A:00 X:00 Y:00 P:A4 SP:38
C442  60        RTS  A:00 X:00 Y:02 P:24 SP:38
C35E  A5 10     LDA  A:00 X:00 Y:02 P:24 SP:3A
C360  29 03     AND  A:00 X:00 Y:02 P:26 SP:3A
C362  88        DEY  A:00 X:00 Y:02 P:26 SP:3A
C363  F0 11     BEQ  A:00 X:00 Y:01 P:24 SP:3A
C365  C9 02     CMP  A:00 X:00 Y:01 P:24 SP:3A
C367  D0 11     BNE  A:00 X:00 Y:01 P:A4 SP:3A
C37A  4C A8 C3  JMP  A:00 X:00 Y:01 P:A4 SP:3A
C3A8  A0 00     LDY  A:00 X:00 Y:01 P:A4 SP:3A
C3AA  84 C1     STY  A:00 X:00 Y:00 P:26 SP:3A
C3AC  8C 31 03  STY  A:00 X:00 Y:00 P:26 SP:3A
C3AF  C8        INY  A:00 X:00 Y:00 P:26 SP:3A
C3B0  8C FF 05  STY  A:00 X:00 Y:01 P:24 SP:3A
C3B3  A4 BB     LDY  A:00 X:00 Y:01 P:24 SP:3A
C3B5  D0 02     BNE  A:00 X:00 Y:00 P:26 SP:3A
C3B7  85 BB     STA  A:00 X:00 Y:00 P:26 SP:3A
C3B9  AC 2B 03  LDY  A:00 X:00 Y:00 P:26 SP:3A
C3BC  D0 03     BNE  A:00 X:00 Y:00 P:26 SP:3A
C3BE  8D 2B 03  STA  A:00 X:00 Y:00 P:26 SP:3A
C3C1  60        RTS  A:00 X:00 Y:00 P:26 SP:3A
3601  00 A0     BRK  A:00 X:00 Y:00 P:26 SP:3C
C000  D8        CLD  A:00 X:00 Y:00 P:26 SP:39
C001  78        SEI  A:00 X:00 Y:00 P:26 SP:39
C002  AD 02 20  LDA  A:00 X:00 Y:00 P:26 SP:39
READING OUT OF PPU MMIO RANGE!!!
C005  10 FB     BPL  A:00 X:00 Y:00 P:26 SP:39
C102  B1 29     LDA  A:00 X:00 Y:00 P:26 SP:39
C104  C0 D0     CPY  A:00 X:00 Y:00 P:26 SP:39
C106  48        PHA  A:00 X:00 Y:00 P:24 SP:39
C107  A5 B1     LDA  A:00 X:00 Y:00 P:24 SP:38
C109  29 03     AND  A:00 X:00 Y:00 P:26 SP:38
C10B  F0 51     BEQ  A:00 X:00 Y:00 P:26 SP:38
C15E  4C 5B C3  JMP  A:00 X:00 Y:00 P:26 SP:38
C35B  20 1F C4  JSR  A:00 X:00 Y:00 P:26 SP:38
C41F  AD 29 03  LDA  A:00 X:00 Y:00 P:26 SP:36
C422  85 1F     STA  A:00 X:00 Y:00 P:26 SP:36
C424  A5 B9     LDA  A:00 X:00 Y:00 P:26 SP:36
C426  4C 30 C4  JMP  A:00 X:00 Y:00 P:26 SP:36
C430  38        SEC  A:00 X:00 Y:00 P:26 SP:36
C431  E5 1F     SBC  A:00 X:00 Y:00 P:27 SP:36
C433  10 07     BPL  A:00 X:00 Y:00 P:27 SP:36
C43C  C9 05     CMP  A:00 X:00 Y:00 P:27 SP:36
C43E  B0 03     BCS  A:00 X:00 Y:00 P:A4 SP:36
C440  A0 02     LDY  A:00 X:00 Y:00 P:A4 SP:36
C442  60        RTS  A:00 X:00 Y:02 P:24 SP:36
C35E  A5 10     LDA  A:00 X:00 Y:02 P:24 SP:38
C360  29 03     AND  A:00 X:00 Y:02 P:26 SP:38
C362  88        DEY  A:00 X:00 Y:02 P:26 SP:38
C363  F0 11     BEQ  A:00 X:00 Y:01 P:24 SP:38
C365  C9 02     CMP  A:00 X:00 Y:01 P:24 SP:38
C367  D0 11     BNE  A:00 X:00 Y:01 P:A4 SP:38
C37A  4C A8 C3  JMP  A:00 X:00 Y:01 P:A4 SP:38
C3A8  A0 00     LDY  A:00 X:00 Y:01 P:A4 SP:38
C3AA  84 C1     STY  A:00 X:00 Y:00 P:26 SP:38
C3AC  8C 31 03  STY  A:00 X:00 Y:00 P:26 SP:38
C3AF  C8        INY  A:00 X:00 Y:00 P:26 SP:38
C3B0  8C FF 05  STY  A:00 X:00 Y:01 P:24 SP:38
C3B3  A4 BB     LDY  A:00 X:00 Y:01 P:24 SP:38
C3B5  D0 02     BNE  A:00 X:00 Y:00 P:26 SP:38
C3B7  85 BB     STA  A:00 X:00 Y:00 P:26 SP:38
C3B9  AC 2B 03  LDY  A:00 X:00 Y:00 P:26 SP:38
C3BC  D0 03     BNE  A:00 X:00 Y:00 P:26 SP:38
C3BE  8D 2B 03  STA  A:00 X:00 Y:00 P:26 SP:38
C3C1  60        RTS  A:00 X:00 Y:00 P:26 SP:38
3601  A0 A0     LDY  A:00 X:00 Y:00 P:26 SP:3A
3603  A0 AC     LDY  A:00 X:00 Y:A0 P:A4 SP:3A
3605  AC AC 00  LDY  A:00 X:00 Y:AC P:A4 SP:3A
3608  00 00     BRK  A:00 X:00 Y:00 P:26 SP:3A
C000  D8        CLD  A:00 X:00 Y:00 P:26 SP:37
C001  78        SEI  A:00 X:00 Y:00 P:26 SP:37
C002  AD 02 20  LDA  A:00 X:00 Y:00 P:26 SP:37
READING OUT OF PPU MMIO RANGE!!!
C005  10 FB     BPL  A:00 X:00 Y:00 P:26 SP:37
C102  B1 29     LDA  A:00 X:00 Y:00 P:26 SP:37
C104  C0 D0     CPY  A:00 X:00 Y:00 P:26 SP:37
C106  48        PHA  A:00 X:00 Y:00 P:24 SP:37
C107  A5 B1     LDA  A:00 X:00 Y:00 P:24 SP:36
C109  29 03     AND  A:00 X:00 Y:00 P:26 SP:36
C10B  F0 51     BEQ  A:00 X:00 Y:00 P:26 SP:36
C15E  4C 5B C3  JMP  A:00 X:00 Y:00 P:26 SP:36
C35B  20 1F C4  JSR  A:00 X:00 Y:00 P:26 SP:36
C41F  AD 29 03  LDA  A:00 X:00 Y:00 P:26 SP:34
C422  85 1F     STA  A:00 X:00 Y:00 P:26 SP:34
C424  A5 B9     LDA  A:00 X:00 Y:00 P:26 SP:34
C426  4C 30 C4  JMP  A:00 X:00 Y:00 P:26 SP:34
C430  38        SEC  A:00 X:00 Y:00 P:26 SP:34
C431  E5 1F     SBC  A:00 X:00 Y:00 P:27 SP:34
C433  10 07     BPL  A:00 X:00 Y:00 P:27 SP:34
C43C  C9 05     CMP  A:00 X:00 Y:00 P:27 SP:34
C43E  B0 03     BCS  A:00 X:00 Y:00 P:A4 SP:34
C440  A0 02     LDY  A:00 X:00 Y:00 P:A4 SP:34
C442  60        RTS  A:00 X:00 Y:02 P:24 SP:34
C35E  A5 10     LDA  A:00 X:00 Y:02 P:24 SP:36
C360  29 03     AND  A:00 X:00 Y:02 P:26 SP:36
C362  88        DEY  A:00 X:00 Y:02 P:26 SP:36
C363  F0 11     BEQ  A:00 X:00 Y:01 P:24 SP:36
C365  C9 02     CMP  A:00 X:00 Y:01 P:24 SP:36
C367  D0 11     BNE  A:00 X:00 Y:01 P:A4 SP:36
C37A  4C A8 C3  JMP  A:00 X:00 Y:01 P:A4 SP:36
C3A8  A0 00     LDY  A:00 X:00 Y:01 P:A4 SP:36
C3AA  84 C1     STY  A:00 X:00 Y:00 P:26 SP:36
C3AC  8C 31 03  STY  A:00 X:00 Y:00 P:26 SP:36
C3AF  C8        INY  A:00 X:00 Y:00 P:26 SP:36
C3B0  8C FF 05  STY  A:00 X:00 Y:01 P:24 SP:36
C3B3  A4 BB     LDY  A:00 X:00 Y:01 P:24 SP:36
C3B5  D0 02     BNE  A:00 X:00 Y:00 P:26 SP:36
C3B7  85 BB     STA  A:00 X:00 Y:00 P:26 SP:36
C3B9  AC 2B 03  LDY  A:00 X:00 Y:00 P:26 SP:36
C3BC  D0 03     BNE  A:00 X:00 Y:00 P:26 SP:36
C3BE  8D 2B 03  STA  A:00 X:00 Y:00 P:26 SP:36
C3C1  60        RTS  A:00 X:00 Y:00 P:26 SP:36
3601  00 A0     BRK  A:00 X:00 Y:00 P:26 SP:38
C000  D8        CLD  A:00 X:00 Y:00 P:26 SP:35
C001  78        SEI  A:00 X:00 Y:00 P:26 SP:35
C002  AD 02 20  LDA  A:00 X:00 Y:00 P:26 SP:35
READING OUT OF PPU MMIO RANGE!!!
C005  10 FB     BPL  A:00 X:00 Y:00 P:26 SP:35
C102  B1 29     LDA  A:00 X:00 Y:00 P:26 SP:35
C104  C0 D0     CPY  A:00 X:00 Y:00 P:26 SP:35
C106  48        PHA  A:00 X:00 Y:00 P:24 SP:35
C107  A5 B1     LDA  A:00 X:00 Y:00 P:24 SP:34
C109  29 03     AND  A:00 X:00 Y:00 P:26 SP:34
C10B  F0 51     BEQ  A:00 X:00 Y:00 P:26 SP:34
C15E  4C 5B C3  JMP  A:00 X:00 Y:00 P:26 SP:34
C35B  20 1F C4  JSR  A:00 X:00 Y:00 P:26 SP:34
C41F  AD 29 03  LDA  A:00 X:00 Y:00 P:26 SP:32
C422  85 1F     STA  A:00 X:00 Y:00 P:26 SP:32
C424  A5 B9     LDA  A:00 X:00 Y:00 P:26 SP:32
C426  4C 30 C4  JMP  A:00 X:00 Y:00 P:26 SP:32
C430  38        SEC  A:00 X:00 Y:00 P:26 SP:32
C431  E5 1F     SBC  A:00 X:00 Y:00 P:27 SP:32
C433  10 07     BPL  A:00 X:00 Y:00 P:27 SP:32
C43C  C9 05     CMP  A:00 X:00 Y:00 P:27 SP:32
C43E  B0 03     BCS  A:00 X:00 Y:00 P:A4 SP:32
C440  A0 02     LDY  A:00 X:00 Y:00 P:A4 SP:32
C442  60        RTS  A:00 X:00 Y:02 P:24 SP:32
C35E  A5 10     LDA  A:00 X:00 Y:02 P:24 SP:34
C360  29 03     AND  A:00 X:00 Y:02 P:26 SP:34
C362  88        DEY  A:00 X:00 Y:02 P:26 SP:34
C363  F0 11     BEQ  A:00 X:00 Y:01 P:24 SP:34
C365  C9 02     CMP  A:00 X:00 Y:01 P:24 SP:34
C367  D0 11     BNE  A:00 X:00 Y:01 P:A4 SP:34
C37A  4C A8 C3  JMP  A:00 X:00 Y:01 P:A4 SP:34
C3A8  A0 00     LDY  A:00 X:00 Y:01 P:A4 SP:34
C3AA  84 C1     STY  A:00 X:00 Y:00 P:26 SP:34
C3AC  8C 31 03  STY  A:00 X:00 Y:00 P:26 SP:34
C3AF  C8        INY  A:00 X:00 Y:00 P:26 SP:34
C3B0  8C FF 05  STY  A:00 X:00 Y:01 P:24 SP:34
C3B3  A4 BB     LDY  A:00 X:00 Y:01 P:24 SP:34
C3B5  D0 02     BNE  A:00 X:00 Y:00 P:26 SP:34
C3B7  85 BB     STA  A:00 X:00 Y:00 P:26 SP:34
C3B9  AC 2B 03  LDY  A:00 X:00 Y:00 P:26 SP:34
C3BC  D0 03     BNE  A:00 X:00 Y:00 P:26 SP:34
C3BE  8D 2B 03  STA  A:00 X:00 Y:00 P:26 SP:34
C3C1  60        RTS  A:00 X:00 Y:00 P:26 SP:34
3601  A0 A0     LDY  A:00 X:00 Y:00 P:26 SP:36
3603  A0 AC     LDY  A:00 X:00 Y:A0 P:A4 SP:36
3605  AC AC 00  LDY  A:00 X:00 Y:AC P:A4 SP:36
3608  00 00     BRK  A:00 X:00 Y:00 P:26 SP:36
C000  D8        CLD  A:00 X:00 Y:00 P:26 SP:33
C001  78        SEI  A:00 X:00 Y:00 P:26 SP:33
C002  AD 02 20  LDA  A:00 X:00 Y:00 P:26 SP:33
READING OUT OF PPU MMIO RANGE!!!
C005  10 FB     BPL  A:00 X:00 Y:00 P:26 SP:33
C102  B1 29     LDA  A:00 X:00 Y:00 P:26 SP:33
C104  C0 D0     CPY  A:00 X:00 Y:00 P:26 SP:33
C106  48        PHA  A:00 X:00 Y:00 P:24 SP:33
C107  A5 B1     LDA  A:00 X:00 Y:00 P:24 SP:32
C109  29 03     AND  A:00 X:00 Y:00 P:26 SP:32
C10B  F0 51     BEQ  A:00 X:00 Y:00 P:26 SP:32
C15E  4C 5B C3  JMP  A:00 X:00 Y:00 P:26 SP:32
C35B  20 1F C4  JSR  A:00 X:00 Y:00 P:26 SP:32
C41F  AD 29 03  LDA  A:00 X:00 Y:00 P:26 SP:30
C422  85 1F     STA  A:00 X:00 Y:00 P:26 SP:30
C424  A5 B9     LDA  A:00 X:00 Y:00 P:26 SP:30
C426  4C 30 C4  JMP  A:00 X:00 Y:00 P:26 SP:30
C430  38        SEC  A:00 X:00 Y:00 P:26 SP:30
C431  E5 1F     SBC  A:00 X:00 Y:00 P:27 SP:30
C433  10 07     BPL  A:00 X:00 Y:00 P:27 SP:30
C43C  C9 05     CMP  A:00 X:00 Y:00 P:27 SP:30
C43E  B0 03     BCS  A:00 X:00 Y:00 P:A4 SP:30
C440  A0 02     LDY  A:00 X:00 Y:00 P:A4 SP:30
C442  60        RTS  A:00 X:00 Y:02 P:24 SP:30
C35E  A5 10     LDA  A:00 X:00 Y:02 P:24 SP:32
C360  29 03     AND  A:00 X:00 Y:02 P:26 SP:32
C362  88        DEY  A:00 X:00 Y:02 P:26 SP:32
C363  F0 11     BEQ  A:00 X:00 Y:01 P:24 SP:32
C365  C9 02     CMP  A:00 X:00 Y:01 P:24 SP:32
C367  D0 11     BNE  A:00 X:00 Y:01 P:A4 SP:32
C37A  4C A8 C3  JMP  A:00 X:00 Y:01 P:A4 SP:32
C3A8  A0 00     LDY  A:00 X:00 Y:01 P:A4 SP:32
C3AA  84 C1     STY  A:00 X:00 Y:00 P:26 SP:32
C3AC  8C 31 03  STY  A:00 X:00 Y:00 P:26 SP:32
C3AF  C8        INY  A:00 X:00 Y:00 P:26 SP:32
C3B0  8C FF 05  STY  A:00 X:00 Y:01 P:24 SP:32
C3B3  A4 BB     LDY  A:00 X:00 Y:01 P:24 SP:32
C3B5  D0 02     BNE  A:00 X:00 Y:00 P:26 SP:32
C3B7  85 BB     STA  A:00 X:00 Y:00 P:26 SP:32
C3B9  AC 2B 03  LDY  A:00 X:00 Y:00 P:26 SP:32
C3BC  D0 03     BNE  A:00 X:00 Y:00 P:26 SP:32
C3BE  8D 2B 03  STA  A:00 X:00 Y:00 P:26 SP:32
C3C1  60        RTS  A:00 X:00 Y:00 P:26 SP:32
3601  00 A0     BRK  A:00 X:00 Y:00 P:26 SP:34
C000  D8        CLD  A:00 X:00 Y:00 P:26 SP:31
C001  78        SEI  A:00 X:00 Y:00 P:26 SP:31
C002  AD 02 20  LDA  A:00 X:00 Y:00 P:26 SP:31
READING OUT OF PPU MMIO RANGE!!!
C005  10 FB     BPL  A:00 X:00 Y:00 P:26 SP:31
C102  B1 29     LDA  A:00 X:00 Y:00 P:26 SP:31
C104  C0 D0     CPY  A:00 X:00 Y:00 P:26 SP:31
C106  48        PHA  A:00 X:00 Y:00 P:24 SP:31
C107  A5 B1     LDA  A:00 X:00 Y:00 P:24 SP:30
C109  29 03     AND  A:00 X:00 Y:00 P:26 SP:30
C10B  F0 51     BEQ  A:00 X:00 Y:00 P:26 SP:30
C15E  4C 5B C3  JMP  A:00 X:00 Y:00 P:26 SP:30
C35B  20 1F C4  JSR  A:00 X:00 Y:00 P:26 SP:30
C41F  AD 29 03  LDA  A:00 X:00 Y:00 P:26 SP:2E
C422  85 1F     STA  A:00 X:00 Y:00 P:26 SP:2E
C424  A5 B9     LDA  A:00 X:00 Y:00 P:26 SP:2E
C426  4C 30 C4  JMP  A:00 X:00 Y:00 P:26 SP:2E
C430  38        SEC  A:00 X:00 Y:00 P:26 SP:2E
C431  E5 1F     SBC  A:00 X:00 Y:00 P:27 SP:2E
C433  10 07     BPL  A:00 X:00 Y:00 P:27 SP:2E
C43C  C9 05     CMP  A:00 X:00 Y:00 P:27 SP:2E
C43E  B0 03     BCS  A:00 X:00 Y:00 P:A4 SP:2E
C440  A0 02     LDY  A:00 X:00 Y:00 P:A4 SP:2E
C442  60        RTS  A:00 X:00 Y:02 P:24 SP:2E
C35E  A5 10     LDA  A:00 X:00 Y:02 P:24 SP:30
C360  29 03     AND  A:00 X:00 Y:02 P:26 SP:30
C362  88        DEY  A:00 X:00 Y:02 P:26 SP:30
C363  F0 11     BEQ  A:00 X:00 Y:01 P:24 SP:30
C365  C9 02     CMP  A:00 X:00 Y:01 P:24 SP:30
C367  D0 11     BNE  A:00 X:00 Y:01 P:A4 SP:30
C37A  4C A8 C3  JMP  A:00 X:00 Y:01 P:A4 SP:30
C3A8  A0 00     LDY  A:00 X:00 Y:01 P:A4 SP:30
C3AA  84 C1     STY  A:00 X:00 Y:00 P:26 SP:30
C3AC  8C 31 03  STY  A:00 X:00 Y:00 P:26 SP:30
C3AF  C8        INY  A:00 X:00 Y:00 P:26 SP:30
C3B0  8C FF 05  STY  A:00 X:00 Y:01 P:24 SP:30
C3B3  A4 BB     LDY  A:00 X:00 Y:01 P:24 SP:30
C3B5  D0 02     BNE  A:00 X:00 Y:00 P:26 SP:30
C3B7  85 BB     STA  A:00 X:00 Y:00 P:26 SP:30
C3B9  AC 2B 03  LDY  A:00 X:00 Y:00 P:26 SP:30
C3BC  D0 03     BNE  A:00 X:00 Y:00 P:26 SP:30
C3BE  8D 2B 03  STA  A:00 X:00 Y:00 P:26 SP:30
C3C1  60        RTS  A:00 X:00 Y:00 P:26 SP:30
3601  A0 A0     LDY  A:00 X:00 Y:00 P:26 SP:32
3603  A0 AC     LDY  A:00 X:00 Y:A0 P:A4 SP:32
3605  AC AC 00  LDY  A:00 X:00 Y:AC P:A4 SP:32
3608  00 00     BRK  A:00 X:00 Y:00 P:26 SP:32
C000  D8        CLD  A:00 X:00 Y:00 P:26 SP:2F
C001  78        SEI  A:00 X:00 Y:00 P:26 SP:2F
C002  AD 02 20  LDA  A:00 X:00 Y:00 P:26 SP:2F
READING OUT OF PPU MMIO RANGE!!!
C005  10 FB     BPL  A:00 X:00 Y:00 P:26 SP:2F
C102  B1 29     LDA  A:00 X:00 Y:00 P:26 SP:2F
C104  C0 D0     CPY  A:00 X:00 Y:00 P:26 SP:2F
C106  48        PHA  A:00 X:00 Y:00 P:24 SP:2F
C107  A5 B1     LDA  A:00 X:00 Y:00 P:24 SP:2E
C109  29 03     AND  A:00 X:00 Y:00 P:26 SP:2E
C10B  F0 51     BEQ  A:00 X:00 Y:00 P:26 SP:2E
C15E  4C 5B C3  JMP  A:00 X:00 Y:00 P:26 SP:2E
C35B  20 1F C4  JSR  A:00 X:00 Y:00 P:26 SP:2E
C41F  AD 29 03  LDA  A:00 X:00 Y:00 P:26 SP:2C
C422  85 1F     STA  A:00 X:00 Y:00 P:26 SP:2C
C424  A5 B9     LDA  A:00 X:00 Y:00 P:26 SP:2C
C426  4C 30 C4  JMP  A:00 X:00 Y:00 P:26 SP:2C
C430  38        SEC  A:00 X:00 Y:00 P:26 SP:2C
C431  E5 1F     SBC  A:00 X:00 Y:00 P:27 SP:2C
C433  10 07     BPL  A:00 X:00 Y:00 P:27 SP:2C
C43C  C9 05     CMP  A:00 X:00 Y:00 P:27 SP:2C
C43E  B0 03     BCS  A:00 X:00 Y:00 P:A4 SP:2C
C440  A0 02     LDY  A:00 X:00 Y:00 P:A4 SP:2C
C442  60        RTS  A:00 X:00 Y:02 P:24 SP:2C
C35E  A5 10     LDA  A:00 X:00 Y:02 P:24 SP:2E
C360  29 03     AND  A:00 X:00 Y:02 P:26 SP:2E
C362  88        DEY  A:00 X:00 Y:02 P:26 SP:2E
C363  F0 11     BEQ  A:00 X:00 Y:01 P:24 SP:2E
C365  C9 02     CMP  A:00 X:00 Y:01 P:24 SP:2E
C367  D0 11     BNE  A:00 X:00 Y:01 P:A4 SP:2E
C37A  4C A8 C3  JMP  A:00 X:00 Y:01 P:A4 SP:2E
C3A8  A0 00     LDY  A:00 X:00 Y:01 P:A4 SP:2E
C3AA  84 C1     STY  A:00 X:00 Y:00 P:26 SP:2E
C3AC  8C 31 03  STY  A:00 X:00 Y:00 P:26 SP:2E
C3AF  C8        INY  A:00 X:00 Y:00 P:26 SP:2E
C3B0  8C FF 05  STY  A:00 X:00 Y:01 P:24 SP:2E
C3B3  A4 BB     LDY  A:00 X:00 Y:01 P:24 SP:2E
C3B5  D0 02     BNE  A:00 X:00 Y:00 P:26 SP:2E
C3B7  85 BB     STA  A:00 X:00 Y:00 P:26 SP:2E
C3B9  AC 2B 03  LDY  A:00 X:00 Y:00 P:26 SP:2E
C3BC  D0 03     BNE  A:00 X:00 Y:00 P:26 SP:2E
C3BE  8D 2B 03  STA  A:00 X:00 Y:00 P:26 SP:2E
C3C1  60        RTS  A:00 X:00 Y:00 P:26 SP:2E
3601  00 A0     BRK  A:00 X:00 Y:00 P:26 SP:30
C000  D8        CLD  A:00 X:00 Y:00 P:26 SP:2D
C001  78        SEI  A:00 X:00 Y:00 P:26 SP:2D
C002  AD 02 20  LDA  A:00 X:00 Y:00 P:26 SP:2D
READING OUT OF PPU MMIO RANGE!!!
C005  10 FB     BPL  A:00 X:00 Y:00 P:26 SP:2D
C102  B1 29     LDA  A:00 X:00 Y:00 P:26 SP:2D
C104  C0 D0     CPY  A:00 X:00 Y:00 P:26 SP:2D
C106  48        PHA  A:00 X:00 Y:00 P:24 SP:2D
C107  A5 B1     LDA  A:00 X:00 Y:00 P:24 SP:2C
C109  29 03     AND  A:00 X:00 Y:00 P:26 SP:2C
C10B  F0 51     BEQ  A:00 X:00 Y:00 P:26 SP:2C
C15E  4C 5B C3  JMP  A:00 X:00 Y:00 P:26 SP:2C
C35B  20 1F C4  JSR  A:00 X:00 Y:00 P:26 SP:2C
C41F  AD 29 03  LDA  A:00 X:00 Y:00 P:26 SP:2A
C422  85 1F     STA  A:00 X:00 Y:00 P:26 SP:2A
C424  A5 B9     LDA  A:00 X:00 Y:00 P:26 SP:2A
C426  4C 30 C4  JMP  A:00 X:00 Y:00 P:26 SP:2A
C430  38        SEC  A:00 X:00 Y:00 P:26 SP:2A
C431  E5 1F     SBC  A:00 X:00 Y:00 P:27 SP:2A
C433  10 07     BPL  A:00 X:00 Y:00 P:27 SP:2A
C43C  C9 05     CMP  A:00 X:00 Y:00 P:27 SP:2A
C43E  B0 03     BCS  A:00 X:00 Y:00 P:A4 SP:2A
C440  A0 02     LDY  A:00 X:00 Y:00 P:A4 SP:2A
C442  60        RTS  A:00 X:00 Y:02 P:24 SP:2A
C35E  A5 10     LDA  A:00 X:00 Y:02 P:24 SP:2C
C360  29 03     AND  A:00 X:00 Y:02 P:26 SP:2C
C362  88        DEY  A:00 X:00 Y:02 P:26 SP:2C
C363  F0 11     BEQ  A:00 X:00 Y:01 P:24 SP:2C
C365  C9 02     CMP  A:00 X:00 Y:01 P:24 SP:2C
C367  D0 11     BNE  A:00 X:00 Y:01 P:A4 SP:2C
C37A  4C A8 C3  JMP  A:00 X:00 Y:01 P:A4 SP:2C
C3A8  A0 00     LDY  A:00 X:00 Y:01 P:A4 SP:2C
C3AA  84 C1     STY  A:00 X:00 Y:00 P:26 SP:2C
C3AC  8C 31 03  STY  A:00 X:00 Y:00 P:26 SP:2C
C3AF  C8        INY  A:00 X:00 Y:00 P:26 SP:2C
C3B0  8C FF 05  STY  A:00 X:00 Y:01 P:24 SP:2C
C3B3  A4 BB     LDY  A:00 X:00 Y:01 P:24 SP:2C
C3B5  D0 02     BNE  A:00 X:00 Y:00 P:26 SP:2C
C3B7  85 BB     STA  A:00 X:00 Y:00 P:26 SP:2C
C3B9  AC 2B 03  LDY  A:00 X:00 Y:00 P:26 SP:2C
C3BC  D0 03     BNE  A:00 X:00 Y:00 P:26 SP:2C
C3BE  8D 2B 03  STA  A:00 X:00 Y:00 P:26 SP:2C
C3C1  60        RTS  A:00 X:00 Y:00 P:26 SP:2C
3601  A0 A0     LDY  A:00 X:00 Y:00 P:26 SP:2E
3603  A0 AC     LDY  A:00 X:00 Y:A0 P:A4 SP:2E
3605  AC AC 00  LDY  A:00 X:00 Y:AC P:A4 SP:2E
3608  00 00     BRK  A:00 X:00 Y:00 P:26 SP:2E
C000  D8        CLD  A:00 X:00 Y:00 P:26 SP:2B
C001  78        SEI  A:00 X:00 Y:00 P:26 SP:2B
C002  AD 02 20  LDA  A:00 X:00 Y:00 P:26 SP:2B
READING OUT OF PPU MMIO RANGE!!!
C005  10 FB     BPL  A:00 X:00 Y:00 P:26 SP:2B
C102  B1 29     LDA  A:00 X:00 Y:00 P:26 SP:2B
C104  C0 D0     CPY  A:00 X:00 Y:00 P:26 SP:2B
C106  48        PHA  A:00 X:00 Y:00 P:24 SP:2B
C107  A5 B1     LDA  A:00 X:00 Y:00 P:24 SP:2A
C109  29 03     AND  A:00 X:00 Y:00 P:26 SP:2A
C10B  F0 51     BEQ  A:00 X:00 Y:00 P:26 SP:2A
C15E  4C 5B C3  JMP  A:00 X:00 Y:00 P:26 SP:2A
C35B  20 1F C4  JSR  A:00 X:00 Y:00 P:26 SP:2A
C41F  AD 29 03  LDA  A:00 X:00 Y:00 P:26 SP:28
C422  85 1F     STA  A:00 X:00 Y:00 P:26 SP:28
C424  A5 B9     LDA  A:00 X:00 Y:00 P:26 SP:28
C426  4C 30 C4  JMP  A:00 X:00 Y:00 P:26 SP:28
C430  38        SEC  A:00 X:00 Y:00 P:26 SP:28
C431  E5 1F     SBC  A:00 X:00 Y:00 P:27 SP:28
C433  10 07     BPL  A:00 X:00 Y:00 P:27 SP:28
C43C  C9 05     CMP  A:00 X:00 Y:00 P:27 SP:28
C43E  B0 03     BCS  A:00 X:00 Y:00 P:A4 SP:28
C440  A0 02     LDY  A:00 X:00 Y:00 P:A4 SP:28
C442  60        RTS  A:00 X:00 Y:02 P:24 SP:28
C35E  A5 10     LDA  A:00 X:00 Y:02 P:24 SP:2A
C360  29 03     AND  A:00 X:00 Y:02 P:26 SP:2A
C362  88        DEY  A:00 X:00 Y:02 P:26 SP:2A
C363  F0 11     BEQ  A:00 X:00 Y:01 P:24 SP:2A
C365  C9 02     CMP  A:00 X:00 Y:01 P:24 SP:2A
C367  D0 11     BNE  A:00 X:00 Y:01 P:A4 SP:2A
C37A  4C A8 C3  JMP  A:00 X:00 Y:01 P:A4 SP:2A
C3A8  A0 00     LDY  A:00 X:00 Y:01 P:A4 SP:2A
C3AA  84 C1     STY  A:00 X:00 Y:00 P:26 SP:2A
C3AC  8C 31 03  STY  A:00 X:00 Y:00 P:26 SP:2A
C3AF  C8        INY  A:00 X:00 Y:00 P:26 SP:2A
C3B0  8C FF 05  STY  A:00 X:00 Y:01 P:24 SP:2A
C3B3  A4 BB     LDY  A:00 X:00 Y:01 P:24 SP:2A
C3B5  D0 02     BNE  A:00 X:00 Y:00 P:26 SP:2A
C3B7  85 BB     STA  A:00 X:00 Y:00 P:26 SP:2A
C3B9  AC 2B 03  LDY  A:00 X:00 Y:00 P:26 SP:2A
C3BC  D0 03     BNE  A:00 X:00 Y:00 P:26 SP:2A
C3BE  8D 2B 03  STA  A:00 X:00 Y:00 P:26 SP:2A
C3C1  60        RTS  A:00 X:00 Y:00 P:26 SP:2A
3601  00 A0     BRK  A:00 X:00 Y:00 P:26 SP:2C
C000  D8        CLD  A:00 X:00 Y:00 P:26 SP:29
C001  78        SEI  A:00 X:00 Y:00 P:26 SP:29
C002  AD 02 20  LDA  A:00 X:00 Y:00 P:26 SP:29
READING OUT OF PPU MMIO RANGE!!!
C005  10 FB     BPL  A:00 X:00 Y:00 P:26 SP:29
C102  B1 29     LDA  A:00 X:00 Y:00 P:26 SP:29
C104  C0 D0     CPY  A:00 X:00 Y:00 P:26 SP:29
C106  48        PHA  A:00 X:00 Y:00 P:24 SP:29
C107  A5 B1     LDA  A:00 X:00 Y:00 P:24 SP:28
C109  29 03     AND  A:00 X:00 Y:00 P:26 SP:28
C10B  F0 51     BEQ  A:00 X:00 Y:00 P:26 SP:28
C15E  4C 5B C3  JMP  A:00 X:00 Y:00 P:26 SP:28
C35B  20 1F C4  JSR  A:00 X:00 Y:00 P:26 SP:28
C41F  AD 29 03  LDA  A:00 X:00 Y:00 P:26 SP:26
C422  85 1F     STA  A:00 X:00 Y:00 P:26 SP:26
C424  A5 B9     LDA  A:00 X:00 Y:00 P:26 SP:26
C426  4C 30 C4  JMP  A:00 X:00 Y:00 P:26 SP:26
C430  38        SEC  A:00 X:00 Y:00 P:26 SP:26
C431  E5 1F     SBC  A:00 X:00 Y:00 P:27 SP:26
C433  10 07     BPL  A:00 X:00 Y:00 P:27 SP:26
C43C  C9 05     CMP  A:00 X:00 Y:00 P:27 SP:26
C43E  B0 03     BCS  A:00 X:00 Y:00 P:A4 SP:26
C440  A0 02     LDY  A:00 X:00 Y:00 P:A4 SP:26
C442  60        RTS  A:00 X:00 Y:02 P:24 SP:26
C35E  A5 10     LDA  A:00 X:00 Y:02 P:24 SP:28
C360  29 03     AND  A:00 X:00 Y:02 P:26 SP:28
C362  88        DEY  A:00 X:00 Y:02 P:26 SP:28
C363  F0 11     BEQ  A:00 X:00 Y:01 P:24 SP:28
C365  C9 02     CMP  A:00 X:00 Y:01 P:24 SP:28
C367  D0 11     BNE  A:00 X:00 Y:01 P:A4 SP:28
C37A  4C A8 C3  JMP  A:00 X:00 Y:01 P:A4 SP:28
C3A8  A0 00     LDY  A:00 X:00 Y:01 P:A4 SP:28
C3AA  84 C1     STY  A:00 X:00 Y:00 P:26 SP:28
C3AC  8C 31 03  STY  A:00 X:00 Y:00 P:26 SP:28
C3AF  C8        INY  A:00 X:00 Y:00 P:26 SP:28
C3B0  8C FF 05  STY  A:00 X:00 Y:01 P:24 SP:28
C3B3  A4 BB     LDY  A:00 X:00 Y:01 P:24 SP:28
C3B5  D0 02     BNE  A:00 X:00 Y:00 P:26 SP:28
C3B7  85 BB     STA  A:00 X:00 Y:00 P:26 SP:28
C3B9  AC 2B 03  LDY  A:00 X:00 Y:00 P:26 SP:28
C3BC  D0 03     BNE  A:00 X:00 Y:00 P:26 SP:28
C3BE  8D 2B 03  STA  A:00 X:00 Y:00 P:26 SP:28
C3C1  60        RTS  A:00 X:00 Y:00 P:26 SP:28
3601  A0 A0     LDY  A:00 X:00 Y:00 P:26 SP:2A
3603  A0 AC     LDY  A:00 X:00 Y:A0 P:A4 SP:2A
3605  AC AC 00  LDY  A:00 X:00 Y:AC P:A4 SP:2A
3608  00 00     BRK  A:00 X:00 Y:00 P:26 SP:2A
C000  D8        CLD  A:00 X:00 Y:00 P:26 SP:27
C001  78        SEI  A:00 X:00 Y:00 P:26 SP:27
C002  AD 02 20  LDA  A:00 X:00 Y:00 P:26 SP:27
READING OUT OF PPU MMIO RANGE!!!
C005  10 FB     BPL  A:00 X:00 Y:00 P:26 SP:27
C102  B1 29     LDA  A:00 X:00 Y:00 P:26 SP:27
C104  C0 D0     CPY  A:00 X:00 Y:00 P:26 SP:27
C106  48        PHA  A:00 X:00 Y:00 P:24 SP:27
C107  A5 B1     LDA  A:00 X:00 Y:00 P:24 SP:26
C109  29 03     AND  A:00 X:00 Y:00 P:26 SP:26
C10B  F0 51     BEQ  A:00 X:00 Y:00 P:26 SP:26
C15E  4C 5B C3  JMP  A:00 X:00 Y:00 P:26 SP:26
C35B  20 1F C4  JSR  A:00 X:00 Y:00 P:26 SP:26
C41F  AD 29 03  LDA  A:00 X:00 Y:00 P:26 SP:24
C422  85 1F     STA  A:00 X:00 Y:00 P:26 SP:24
C424  A5 B9     LDA  A:00 X:00 Y:00 P:26 SP:24
C426  4C 30 C4  JMP  A:00 X:00 Y:00 P:26 SP:24
C430  38        SEC  A:00 X:00 Y:00 P:26 SP:24
C431  E5 1F     SBC  A:00 X:00 Y:00 P:27 SP:24
C433  10 07     BPL  A:00 X:00 Y:00 P:27 SP:24
C43C  C9 05     CMP  A:00 X:00 Y:00 P:27 SP:24
C43E  B0 03     BCS  A:00 X:00 Y:00 P:A4 SP:24
C440  A0 02     LDY  A:00 X:00 Y:00 P:A4 SP:24
C442  60        RTS  A:00 X:00 Y:02 P:24 SP:24
C35E  A5 10     LDA  A:00 X:00 Y:02 P:24 SP:26
C360  29 03     AND  A:00 X:00 Y:02 P:26 SP:26
C362  88        DEY  A:00 X:00 Y:02 P:26 SP:26
C363  F0 11     BEQ  A:00 X:00 Y:01 P:24 SP:26
C365  C9 02     CMP  A:00 X:00 Y:01 P:24 SP:26
C367  D0 11     BNE  A:00 X:00 Y:01 P:A4 SP:26
C37A  4C A8 C3  JMP  A:00 X:00 Y:01 P:A4 SP:26
C3A8  A0 00     LDY  A:00 X:00 Y:01 P:A4 SP:26
C3AA  84 C1     STY  A:00 X:00 Y:00 P:26 SP:26
C3AC  8C 31 03  STY  A:00 X:00 Y:00 P:26 SP:26
C3AF  C8        INY  A:00 X:00 Y:00 P:26 SP:26
C3B0  8C FF 05  STY  A:00 X:00 Y:01 P:24 SP:26
C3B3  A4 BB     LDY  A:00 X:00 Y:01 P:24 SP:26
C3B5  D0 02     BNE  A:00 X:00 Y:00 P:26 SP:26
C3B7  85 BB     STA  A:00 X:00 Y:00 P:26 SP:26
C3B9  AC 2B 03  LDY  A:00 X:00 Y:00 P:26 SP:26
C3BC  D0 03     BNE  A:00 X:00 Y:00 P:26 SP:26
C3BE  8D 2B 03  STA  A:00 X:00 Y:00 P:26 SP:26
C3C1  60        RTS  A:00 X:00 Y:00 P:26 SP:26
3601  00 A0     BRK  A:00 X:00 Y:00 P:26 SP:28
TOTAL CYCLES: 15000
DONE!!!!
